(lp0
(dp1
S'content'
p2
S'Des irr\xc3\xa9gularit\xc3\xa9s ou des d\xc3\xa9sordres ont \xc3\xa9t\xc3\xa9 observ\xc3\xa9s'
p3
sS'title'
p4
S"Des irr\xc3\xa9gularit\xc3\xa9s ou des d\xc3\xa9sordres n'ont pas \xc3\xa9t\xc3\xa9 observ\xc3\xa9s"
p5
sS'created'
p6
I1380730500
sS'mood'
p7
S'Negative'
p8
sS'channelReportId'
p9
S'275'
p10
sa(dp11
g7
S'Positive'
p12
sg6
I1380644100
sg4
S'Aucunes irr\xc3\xa9gularit\xc3\xa9s ou d\xc3\xa9sordres observ\xc3\xa9s'
p13
sg2
S"Des irr\xc3\xa9gularit\xc3\xa9s ou des d\xc3\xa9sordres n'ont pas \xc3\xa9t\xc3\xa9 observ\xc3\xa9s"
p14
sS'location'
p15
(dp16
S'lat'
p17
F4.0595968
sS'lng'
p18
F9.6870459
ssg9
S'271'
p19
sa(dp20
g7
g8
sg6
I1380644100
sg4
S'Des irr\xc3\xa9gularit\xc3\xa9s ou des d\xc3\xa9sordres ont \xc3\xa9t\xc3\xa9 observ\xc3\xa9s'
p21
sg2
S'Des irr\xc3\xa9gularit\xc3\xa9s ou des d\xc3\xa9sordres ont \xc3\xa9t\xc3\xa9 observ\xc3\xa9s'
p22
sg15
(dp23
g17
F2.9166667
sg18
F11.15
ssg9
S'272'
p24
sa(dp25
g7
g12
sg6
I1380644100
sg4
S"Des irr\xc3\xa9gularit\xc3\xa9s ou des d\xc3\xa9sordres n'ont pas \xc3\xa9t\xc3\xa9 observ\xc3\xa9s"
p26
sg2
S"Des irr\xc3\xa9gularit\xc3\xa9s ou des d\xc3\xa9sordres n'ont pas \xc3\xa9t\xc3\xa9 observ\xc3\xa9s"
p27
sg15
(dp28
g17
F4.0595968
sg18
F9.6870459
ssg9
S'273'
p29
sa(dp30
g7
g12
sg6
I1380644100
sg4
S"Des irr\xc3\xa9gularit\xc3\xa9s ou des d\xc3\xa9sordres n'ont pas \xc3\xa9t\xc3\xa9 observ\xc3\xa9s"
p31
sg2
S"Des irr\xc3\xa9gularit\xc3\xa9s ou des d\xc3\xa9sordres n'ont pas \xc3\xa9t\xc3\xa9 observ\xc3\xa9s"
p32
sg15
(dp33
g17
F4.95604
sg18
F9.936546
ssg9
S'274'
p34
sa(dp35
g7
g12
sg6
I1380644100
sg4
S"Des irr\xc3\xa9gularit\xc3\xa9s ou des d\xc3\xa9sordres n'ont pas \xc3\xa9t\xc3\xa9 observ\xc3\xa9s"
p36
sg2
S"Des irr\xc3\xa9gularit\xc3\xa9s ou des d\xc3\xa9sordres n'ont pas \xc3\xa9t\xc3\xa9 observ\xc3\xa9s"
p37
sg15
(dp38
g17
F3.8334681
sg18
F11.5065747
ssg9
S'277'
p39
sa(dp40
g7
g12
sg6
I1380644100
sg4
S"Des irr\xc3\xa9gularit\xc3\xa9s ou des d\xc3\xa9sordres n'ont pas \xc3\xa9t\xc3\xa9 observ\xc3\xa9s"
p41
sg2
S"Des irr\xc3\xa9gularit\xc3\xa9s ou des d\xc3\xa9sordres n'ont pas \xc3\xa9t\xc3\xa9 observ\xc3\xa9s"
p42
sg15
(dp43
g17
F9.080787299999999
sg18
F12.975219
ssg9
S'278'
p44
sa(dp45
g7
g12
sg6
I1380644100
sg4
S"Des irr\xc3\xa9gularit\xc3\xa9s ou des d\xc3\xa9sordres n'ont pas \xc3\xa9t\xc3\xa9 observ\xc3\xa9s"
p46
sg2
S"Des irr\xc3\xa9gularit\xc3\xa9s ou des d\xc3\xa9sordres n'ont pas \xc3\xa9t\xc3\xa9 observ\xc3\xa9s"
p47
sg15
(dp48
g17
F2.9333333
sg18
F11.9833333
ssg9
S'279'
p49
sa(dp50
g7
g8
sg6
I1380644100
sg4
S"Des irr\xc3\xa9gularit\xc3\xa9s ou des d\xc3\xa9sordres n'ont pas \xc3\xa9t\xc3\xa9 observ\xc3\xa9s"
p51
sg2
S'Des irr\xc3\xa9gularit\xc3\xa9s ou des d\xc3\xa9sordres ont \xc3\xa9t\xc3\xa9 observ\xc3\xa9s'
p52
sg15
(dp53
g17
F5.485658
sg18
F10.41299
ssg9
S'280'
p54
sa(dp55
g7
g8
sg6
I1380644100
sg4
S"Des irr\xc3\xa9gularit\xc3\xa9s ou des d\xc3\xa9sordres n'ont pas \xc3\xa9t\xc3\xa9 observ\xc3\xa9s"
p56
sg2
S'Des irr\xc3\xa9gularit\xc3\xa9s ou des d\xc3\xa9sordres ont \xc3\xa9t\xc3\xa9 observ\xc3\xa9s'
p57
sg15
(dp58
g17
F3.8374034
sg18
F11.4855234
ssg9
S'282'
p59
sa(dp60
g7
g12
sg6
I1380644100
sg4
S'Aucunes irr\xc3\xa9gularit\xc3\xa9s ou d\xc3\xa9sordres observ\xc3\xa9s'
p61
sg2
S"Des irr\xc3\xa9gularit\xc3\xa9s ou des d\xc3\xa9sordres n'ont pas \xc3\xa9t\xc3\xa9 observ\xc3\xa9s"
p62
sg15
(dp63
g17
F3.8791827
sg18
F11.5335204
ssg9
S'283'
p64
sa(dp65
g7
g8
sg6
I1380644100
sg4
S'Des irr\xc3\xa9gularit\xc3\xa9s ou d\xc3\xa9sordres observ\xc3\xa9s'
p66
sg2
S'Des irr\xc3\xa9gularit\xc3\xa9s ou des d\xc3\xa9sordres ont \xc3\xa9t\xc3\xa9 observ\xc3\xa9s'
p67
sg15
(dp68
g17
F3.5166667
sg18
F15.05
ssg9
S'284'
p69
sa(dp70
g7
g12
sg6
I1380644100
sg4
S'Aucunes irr\xc3\xa9gularit\xc3\xa9s ou d\xc3\xa9sordres observ\xc3\xa9s'
p71
sg2
S"Des irr\xc3\xa9gularit\xc3\xa9s ou des d\xc3\xa9sordres n'ont pas \xc3\xa9t\xc3\xa9 observ\xc3\xa9s"
p72
sg15
(dp73
g17
F3.8374034
sg18
F11.4855234
ssg9
S'291'
p74
sa(dp75
g7
g12
sg6
I1380644100
sg4
S'Aucunes irr\xc3\xa9gularit\xc3\xa9s ou d\xc3\xa9sordres observ\xc3\xa9s'
p76
sg2
S"Des irr\xc3\xa9gularit\xc3\xa9s ou des d\xc3\xa9sordres n'ont pas \xc3\xa9t\xc3\xa9 observ\xc3\xa9s"
p77
sg15
(dp78
g17
F3.866666699999999
sg18
F11.5166667
ssg9
S'292'
p79
sa(dp80
g7
g8
sg6
I1380644100
sg4
S'Des irr\xc3\xa9gularit\xc3\xa9s ou des d\xc3\xa9sordres ont \xc3\xa9t\xc3\xa9 observ\xc3\xa9s'
p81
sg2
S'Des irr\xc3\xa9gularit\xc3\xa9s ou des d\xc3\xa9sordres ont \xc3\xa9t\xc3\xa9 observ\xc3\xa9s'
p82
sg15
(dp83
g17
F3.866666699999999
sg18
F11.5166667
ssg9
S'293'
p84
sa(dp85
g7
g8
sg6
I1380644100
sg4
S'Des irr\xc3\xa9gularit\xc3\xa9s ou d\xc3\xa9sordres observ\xc3\xa9s'
p86
sg2
S'Des irr\xc3\xa9gularit\xc3\xa9s ou des d\xc3\xa9sordres ont \xc3\xa9t\xc3\xa9 observ\xc3\xa9s'
p87
sg15
(dp88
g17
F3.866666699999999
sg18
F11.5166667
ssg9
S'294'
p89
sa(dp90
g7
g8
sg6
I1380644100
sg4
S'Des irr\xc3\xa9gularit\xc3\xa9s ou des d\xc3\xa9sordres ont \xc3\xa9t\xc3\xa9 observ\xc3\xa9s'
p91
sg2
S'Des irr\xc3\xa9gularit\xc3\xa9s ou des d\xc3\xa9sordres ont \xc3\xa9t\xc3\xa9 observ\xc3\xa9s'
p92
sg15
(dp93
g17
F8.46916
sg18
F13.24466
ssg9
S'295'
p94
sa(dp95
g2
S"Des irr\xc3\xa9gularit\xc3\xa9s ou des d\xc3\xa9sordres n'ont pas \xc3\xa9t\xc3\xa9 observ\xc3\xa9s"
p96
sg4
S'Des irr\xc3\xa9gularit\xc3\xa9s ou d\xc3\xa9sordres observ\xc3\xa9s'
p97
sg6
I1380644100
sg7
g12
sg9
S'296'
p98
sa(dp99
g2
S"Des irr\xc3\xa9gularit\xc3\xa9s ou des d\xc3\xa9sordres n'ont pas \xc3\xa9t\xc3\xa9 observ\xc3\xa9s"
p100
sg4
S'Des irr\xc3\xa9gularit\xc3\xa9s ou des d\xc3\xa9sordres ont \xc3\xa9t\xc3\xa9 observ\xc3\xa9s'
p101
sg6
I1380644100
sg7
g12
sg9
S'297'
p102
sa(dp103
g7
g12
sg6
I1380644100
sg4
S'Des irr\xc3\xa9gularit\xc3\xa9s ou d\xc3\xa9sordres observ\xc3\xa9s'
p104
sg2
S"Des irr\xc3\xa9gularit\xc3\xa9s ou des d\xc3\xa9sordres n'ont pas \xc3\xa9t\xc3\xa9 observ\xc3\xa9s"
p105
sg15
(dp106
g17
F4.5580726
sg18
F9.6259546
ssg9
S'298'
p107
sa(dp108
g2
S"Des irr\xc3\xa9gularit\xc3\xa9s ou des d\xc3\xa9sordres n'ont pas \xc3\xa9t\xc3\xa9 observ\xc3\xa9s"
p109
sg4
S'Aucunes irr\xc3\xa9gularit\xc3\xa9s ou d\xc3\xa9sordres observ\xc3\xa9s'
p110
sg6
I1380644040
sg7
g12
sg9
S'276'
p111
sa(dp112
g2
S'Des irr\xc3\xa9gularit\xc3\xa9s ou des d\xc3\xa9sordres ont \xc3\xa9t\xc3\xa9 observ\xc3\xa9s'
p113
sg4
S'Des irr\xc3\xa9gularit\xc3\xa9s ou d\xc3\xa9sordres observ\xc3\xa9s'
p114
sg6
I1380644040
sg7
g8
sg9
S'281'
p115
sa(dp116
g7
g12
sg6
I1380644040
sg4
S'Aucunes irr\xc3\xa9gularit\xc3\xa9s ou d\xc3\xa9sordres observ\xc3\xa9s'
p117
sg2
S"Des irr\xc3\xa9gularit\xc3\xa9s ou des d\xc3\xa9sordres n'ont pas \xc3\xa9t\xc3\xa9 observ\xc3\xa9s"
p118
sg15
(dp119
g17
F4.1682138
sg18
F10.0807298
ssg9
S'285'
p120
sa(dp121
g7
g8
sg6
I1380644040
sg4
S'Des irr\xc3\xa9gularit\xc3\xa9s ou d\xc3\xa9sordres observ\xc3\xa9s'
p122
sg2
S'Des irr\xc3\xa9gularit\xc3\xa9s ou des d\xc3\xa9sordres ont \xc3\xa9t\xc3\xa9 observ\xc3\xa9s'
p123
sg15
(dp124
g17
F4.1682138
sg18
F10.0807298
ssg9
S'286'
p125
sa(dp126
g7
g12
sg6
I1380644040
sg4
S'Aucunes irr\xc3\xa9gularit\xc3\xa9s ou d\xc3\xa9sordres observ\xc3\xa9s'
p127
sg2
S"Des irr\xc3\xa9gularit\xc3\xa9s ou des d\xc3\xa9sordres n'ont pas \xc3\xa9t\xc3\xa9 observ\xc3\xa9s"
p128
sg15
(dp129
g17
F5.485658
sg18
F10.41299
ssg9
S'287'
p130
sa(dp131
g7
g12
sg6
I1380644040
sg4
S"Des irr\xc3\xa9gularit\xc3\xa9s ou des d\xc3\xa9sordres n'ont pas \xc3\xa9t\xc3\xa9 observ\xc3\xa9s"
p132
sg2
S"Des irr\xc3\xa9gularit\xc3\xa9s ou des d\xc3\xa9sordres n'ont pas \xc3\xa9t\xc3\xa9 observ\xc3\xa9s"
p133
sg15
(dp134
g17
F5.8351175
sg18
F9.8878507
ssg9
S'288'
p135
sa(dp136
g7
g8
sg6
I1380644040
sg4
S"Des irr\xc3\xa9gularit\xc3\xa9s ou des d\xc3\xa9sordres n'ont pas \xc3\xa9t\xc3\xa9 observ\xc3\xa9s"
p137
sg2
S'Des irr\xc3\xa9gularit\xc3\xa9s ou des d\xc3\xa9sordres ont \xc3\xa9t\xc3\xa9 observ\xc3\xa9s'
p138
sg15
(dp139
g17
F4.575472
sg18
F13.68459
ssg9
S'289'
p140
sa(dp141
g7
g8
sg6
I1380644040
sg4
S'Des irr\xc3\xa9gularit\xc3\xa9s ou d\xc3\xa9sordres observ\xc3\xa9s'
p142
sg2
S'Des irr\xc3\xa9gularit\xc3\xa9s ou des d\xc3\xa9sordres ont \xc3\xa9t\xc3\xa9 observ\xc3\xa9s'
p143
sg15
(dp144
g17
F3.8293683
sg18
F10.7337425
ssg9
S'290'
p145
sa(dp146
g7
g12
sg6
I1380644040
sg4
S'Des irr\xc3\xa9gularit\xc3\xa9s ou des d\xc3\xa9sordres ont \xc3\xa9t\xc3\xa9 observ\xc3\xa9s'
p147
sg2
S"Des irr\xc3\xa9gularit\xc3\xa9s ou des d\xc3\xa9sordres n'ont pas \xc3\xa9t\xc3\xa9 observ\xc3\xa9s"
p148
sg15
(dp149
g17
F3.8791827
sg18
F11.5335204
ssg9
S'299'
p150
sa(dp151
g7
g12
sg6
I1380644040
sg4
S"Des irr\xc3\xa9gularit\xc3\xa9s ou des d\xc3\xa9sordres n' ont pas \xc3\xa9t\xc3\xa9 observ\xc3\xa9s"
p152
sg2
S"Des irr\xc3\xa9gularit\xc3\xa9s ou des d\xc3\xa9sordres n'ont pas \xc3\xa9t\xc3\xa9 observ\xc3\xa9s"
p153
sg15
(dp154
g17
F6.750211999999999
sg18
F11.81085
ssg9
S'300'
p155
sa(dp156
g7
g12
sg6
I1380644040
sg4
S"Des irr\xc3\xa9gularit\xc3\xa9s ou des d\xc3\xa9sordres n' ont pas \xc3\xa9t\xc3\xa9 observ\xc3\xa9s"
p157
sg2
S"Des irr\xc3\xa9gularit\xc3\xa9s ou des d\xc3\xa9sordres n'ont pas \xc3\xa9t\xc3\xa9 observ\xc3\xa9s"
p158
sg15
(dp159
g17
F4.047486000000001
sg18
F9.706374
ssg9
S'301'
p160
sa(dp161
g7
g12
sg6
I1380644040
sg4
S'Aucunes irr\xc3\xa9gularit\xc3\xa9s ou d\xc3\xa9sordres observ\xc3\xa9s'
p162
sg2
S"Des irr\xc3\xa9gularit\xc3\xa9s ou des d\xc3\xa9sordres n'ont pas \xc3\xa9t\xc3\xa9 observ\xc3\xa9s"
p163
sg15
(dp164
g17
F4.1682138
sg18
F10.0807298
ssg9
S'302'
p165
sa(dp166
g2
S"Des irr\xc3\xa9gularit\xc3\xa9s ou des d\xc3\xa9sordres n'ont pas \xc3\xa9t\xc3\xa9 observ\xc3\xa9s"
p167
sg4
S'Aucunes irr\xc3\xa9gularit\xc3\xa9s ou d\xc3\xa9sordres observ\xc3\xa9s'
p168
sg6
I1380644040
sg7
g12
sg9
S'303'
p169
sa(dp170
g7
g12
sg6
I1380644040
sg4
S'Aucunes irr\xc3\xa9gularit\xc3\xa9s ou d\xc3\xa9sordres observ\xc3\xa9s'
p171
sg2
S"Des irr\xc3\xa9gularit\xc3\xa9s ou des d\xc3\xa9sordres n'ont pas \xc3\xa9t\xc3\xa9 observ\xc3\xa9s"
p172
sg15
(dp173
g17
F3.4992584
sg18
F11.3289244
ssg9
S'304'
p174
sa(dp175
g7
g12
sg6
I1380644040
sg4
S'Aucunes irr\xc3\xa9gularit\xc3\xa9s ou d\xc3\xa9sordres observ\xc3\xa9s'
p176
sg2
S"Des irr\xc3\xa9gularit\xc3\xa9s ou des d\xc3\xa9sordres n'ont pas \xc3\xa9t\xc3\xa9 observ\xc3\xa9s"
p177
sg15
(dp178
g17
F3.4992584
sg18
F11.3289244
ssg9
S'305'
p179
sa(dp180
g7
g8
sg6
I1380644040
sg4
S'Des irr\xc3\xa9gularit\xc3\xa9s ou d\xc3\xa9sordres observ\xc3\xa9s'
p181
sg2
S'Des irr\xc3\xa9gularit\xc3\xa9s ou des d\xc3\xa9sordres ont \xc3\xa9t\xc3\xa9 observ\xc3\xa9s'
p182
sg15
(dp183
g17
F4.047486000000001
sg18
F9.706374
ssg9
S'306'
p184
sa(dp185
g2
S"Des irr\xc3\xa9gularit\xc3\xa9s ou des d\xc3\xa9sordres n'ont pas \xc3\xa9t\xc3\xa9 observ\xc3\xa9s"
p186
sg4
S'Aucunes irr\xc3\xa9gularit\xc3\xa9s ou d\xc3\xa9sordres observ\xc3\xa9s'
p187
sg6
I1380644040
sg7
g12
sg9
S'307'
p188
sa(dp189
g7
g12
sg6
I1380644040
sg4
S'Aucunes irr\xc3\xa9gularit\xc3\xa9s ou d\xc3\xa9sordres observ\xc3\xa9s'
p190
sg2
S"Des irr\xc3\xa9gularit\xc3\xa9s ou des d\xc3\xa9sordres n'ont pas \xc3\xa9t\xc3\xa9 observ\xc3\xa9s"
p191
sg15
(dp192
g17
F3.4992584
sg18
F11.3289244
ssg9
S'308'
p193
sa(dp194
g2
S'Des irr\xc3\xa9gularit\xc3\xa9s ou des d\xc3\xa9sordres ont \xc3\xa9t\xc3\xa9 observ\xc3\xa9s'
p195
sg4
S'Des irr\xc3\xa9gularit\xc3\xa9s ou d\xc3\xa9sordres observ\xc3\xa9s'
p196
sg6
I1380644040
sg7
g8
sg9
S'309'
p197
sa(dp198
g7
g8
sg6
I1380644040
sg4
S'Des irr\xc3\xa9gularit\xc3\xa9s ou d\xc3\xa9sordres observ\xc3\xa9s'
p199
sg2
S'Des irr\xc3\xa9gularit\xc3\xa9s ou des d\xc3\xa9sordres ont \xc3\xa9t\xc3\xa9 observ\xc3\xa9s'
p200
sg15
(dp201
g17
F11.1615368
sg18
F14.0144902
ssg9
S'310'
p202
sa(dp203
g7
g8
sg6
I1380644040
sg4
S'Des irr\xc3\xa9gularit\xc3\xa9s ou d\xc3\xa9sordres observ\xc3\xa9s'
p204
sg2
S'Des irr\xc3\xa9gularit\xc3\xa9s ou des d\xc3\xa9sordres ont \xc3\xa9t\xc3\xa9 observ\xc3\xa9s'
p205
sg15
(dp206
g17
F3.8842002
sg18
F11.5063368
ssg9
S'311'
p207
sa(dp208
g2
S'Des irr\xc3\xa9gularit\xc3\xa9s ou des d\xc3\xa9sordres ont \xc3\xa9t\xc3\xa9 observ\xc3\xa9s'
p209
sg4
S'Des irr\xc3\xa9gularit\xc3\xa9s ou d\xc3\xa9sordres observ\xc3\xa9s'
p210
sg6
I1380644040
sg7
g8
sg9
S'312'
p211
sa(dp212
g7
g12
sg6
I1380644040
sg4
S'Aucunes irr\xc3\xa9gularit\xc3\xa9s ou d\xc3\xa9sordres observ\xc3\xa9s'
p213
sg2
S"Des irr\xc3\xa9gularit\xc3\xa9s ou des d\xc3\xa9sordres n'ont pas \xc3\xa9t\xc3\xa9 observ\xc3\xa9s"
p214
sg15
(dp215
g17
F3.8842002
sg18
F11.5063368
ssg9
S'313'
p216
sa(dp217
g7
g8
sg6
I1380644040
sg4
S'Des irr\xc3\xa9gularit\xc3\xa9s ou d\xc3\xa9sordres observ\xc3\xa9s'
p218
sg2
S'Des irr\xc3\xa9gularit\xc3\xa9s ou des d\xc3\xa9sordres ont \xc3\xa9t\xc3\xa9 observ\xc3\xa9s'
p219
sg15
(dp220
g17
F10.5823219
sg18
F14.327545
ssg9
S'314'
p221
sa(dp222
g7
g12
sg6
I1380644040
sg4
S'Aucunes irr\xc3\xa9gularit\xc3\xa9s ou d\xc3\xa9sordres observ\xc3\xa9s'
p223
sg2
S"Des irr\xc3\xa9gularit\xc3\xa9s ou des d\xc3\xa9sordres n'ont pas \xc3\xa9t\xc3\xa9 observ\xc3\xa9s"
p224
sg15
(dp225
g17
F4.047486000000001
sg18
F9.706374
ssg9
S'315'
p226
sa(dp227
g7
g8
sg6
I1380644040
sg4
S'Des irr\xc3\xa9gularit\xc3\xa9s ou d\xc3\xa9sordres observ\xc3\xa9s'
p228
sg2
S'Des irr\xc3\xa9gularit\xc3\xa9s ou des d\xc3\xa9sordres ont \xc3\xa9t\xc3\xa9 observ\xc3\xa9s'
p229
sg15
(dp230
g17
F3.8374034
sg18
F11.4855234
ssg9
S'316'
p231
sa(dp232
g7
g12
sg6
I1380644040
sg4
S'Aucunes irr\xc3\xa9gularit\xc3\xa9s ou d\xc3\xa9sordres observ\xc3\xa9s'
p233
sg2
S"Des irr\xc3\xa9gularit\xc3\xa9s ou des d\xc3\xa9sordres n'ont pas \xc3\xa9t\xc3\xa9 observ\xc3\xa9s"
p234
sg15
(dp235
g17
F8.580901299999999
sg18
F13.914399
ssg9
S'317'
p236
sa(dp237
g7
g12
sg6
I1380644040
sg4
S'Aucunes irr\xc3\xa9gularit\xc3\xa9s ou d\xc3\xa9sordres observ\xc3\xa9s'
p238
sg2
S"Des irr\xc3\xa9gularit\xc3\xa9s ou des d\xc3\xa9sordres n'ont pas \xc3\xa9t\xc3\xa9 observ\xc3\xa9s"
p239
sg15
(dp240
g17
F3.983866
sg18
F13.17407
ssg9
S'318'
p241
sa(dp242
g7
g12
sg6
I1380644040
sg4
S'Aucunes irr\xc3\xa9gularit\xc3\xa9s ou d\xc3\xa9sordres observ\xc3\xa9s'
p243
sg2
S"Des irr\xc3\xa9gularit\xc3\xa9s ou des d\xc3\xa9sordres n'ont pas \xc3\xa9t\xc3\xa9 observ\xc3\xa9s"
p244
sg15
(dp245
g17
F4.0595968
sg18
F9.6870459
ssg9
S'319'
p246
sa(dp247
g2
S"Des irr\xc3\xa9gularit\xc3\xa9s ou des d\xc3\xa9sordres n'ont pas \xc3\xa9t\xc3\xa9 observ\xc3\xa9s"
p248
sg4
S'Aucunes irr\xc3\xa9gularit\xc3\xa9s ou d\xc3\xa9sordres observ\xc3\xa9s'
p249
sg6
I1380644040
sg7
g12
sg9
S'320'
p250
sa(dp251
g7
g8
sg6
I1380644040
sg4
S'Des irr\xc3\xa9gularit\xc3\xa9s ou d\xc3\xa9sordres observ\xc3\xa9s'
p252
sg2
S'Des irr\xc3\xa9gularit\xc3\xa9s ou des d\xc3\xa9sordres ont \xc3\xa9t\xc3\xa9 observ\xc3\xa9s'
p253
sg15
(dp254
g17
F4.575472
sg18
F13.68459
ssg9
S'321'
p255
sa(dp256
g7
g12
sg6
I1380644040
sg4
S"Des irr\xc3\xa9gularit\xc3\xa9s ou des d\xc3\xa9sordres n' ont pas \xc3\xa9t\xc3\xa9 observ\xc3\xa9s"
p257
sg2
S"Des irr\xc3\xa9gularit\xc3\xa9s ou des d\xc3\xa9sordres n'ont pas \xc3\xa9t\xc3\xa9 observ\xc3\xa9s"
p258
sg15
(dp259
g17
F4.0595968
sg18
F9.6870459
ssg9
S'322'
p260
sa(dp261
g7
g12
sg6
I1380644040
sg4
S'Aucunes irr\xc3\xa9gularit\xc3\xa9s ou d\xc3\xa9sordres observ\xc3\xa9s'
p262
sg2
S"Des irr\xc3\xa9gularit\xc3\xa9s ou des d\xc3\xa9sordres n'ont pas \xc3\xa9t\xc3\xa9 observ\xc3\xa9s"
p263
sg15
(dp264
g17
F4.0262721
sg18
F9.727782
ssg9
S'323'
p265
sa(dp266
g7
g8
sg6
I1380644040
sg4
S'Des irr\xc3\xa9gularit\xc3\xa9s ou d\xc3\xa9sordres observ\xc3\xa9s'
p267
sg2
S'Des irr\xc3\xa9gularit\xc3\xa9s ou des d\xc3\xa9sordres ont \xc3\xa9t\xc3\xa9 observ\xc3\xa9s'
p268
sg15
(dp269
g17
F4.047486000000001
sg18
F9.706374
ssg9
S'324'
p270
sa(dp271
g7
g8
sg6
I1380644040
sg4
S'Des irr\xc3\xa9gularit\xc3\xa9s ou d\xc3\xa9sordres observ\xc3\xa9s'
p272
sg2
S'Des irr\xc3\xa9gularit\xc3\xa9s ou des d\xc3\xa9sordres ont \xc3\xa9t\xc3\xa9 observ\xc3\xa9s'
p273
sg15
(dp274
g17
F4.047486000000001
sg18
F9.706374
ssg9
S'325'
p275
sa(dp276
g7
g8
sg6
I1380643980
sg4
S'Des irr\xc3\xa9gularit\xc3\xa9s ou d\xc3\xa9sordres observ\xc3\xa9s'
p277
sg2
S'Des irr\xc3\xa9gularit\xc3\xa9s ou des d\xc3\xa9sordres ont \xc3\xa9t\xc3\xa9 observ\xc3\xa9s'
p278
sg15
(dp279
g17
F3.8739715
sg18
F11.5409151
ssg9
S'326'
p280
sa(dp281
g7
g12
sg6
I1380639660
sg4
S'Des \xc3\xa9lecteurs dont le nom figure sur la liste ne sont pas \xc3\xa9t\xc3\xa9 emp\xc3\xaach\xc3\xa9s de voter.'
p282
sg2
S'Des \xc3\xa9lecteurs dont le nom figurent sur la liste ne sont pas \xc3\xa9t\xc3\xa9 emp\xc3\xaach\xc3\xa9s de voter.'
p283
sg15
(dp284
g17
F3.8791827
sg18
F11.5335204
ssg9
S'210'
p285
sa(dp286
g7
g12
sg6
I1380639660
sg4
S'Des \xc3\xa9lecteurs dont le nom figurent sur la liste ne sont pas emp\xc3\xaach\xc3\xa9s de voter'
p287
sg2
S'Des \xc3\xa9lecteurs dont le nom figure sur la liste n\xe2\x80\x99ont pas \xc3\xa9t\xc3\xa9 emp\xc3\xaach\xc3\xa9s de voter'
p288
sg15
(dp289
g17
F4.54861
sg18
F13.7261
ssg9
S'327'
p290
sa(dp291
g7
g12
sg6
I1380639660
sg4
S'Des \xc3\xa9lecteurs dont le nom figurent sur la liste ne sont pas emp\xc3\xaach\xc3\xa9s de voter'
p292
sg2
S'Des \xc3\xa9lecteurs dont le nom figure sur la liste n\xe2\x80\x99ont pas \xc3\xa9t\xc3\xa9 emp\xc3\xaach\xc3\xa9s de voter'
p293
sg15
(dp294
g17
F3.866666699999999
sg18
F11.5166667
ssg9
S'328'
p295
sa(dp296
g7
g12
sg6
I1380639660
sg4
S'Des \xc3\xa9lecteurs dont le nom figure sur la liste ne sont pas emp\xc3\xaach\xc3\xa9s de voter'
p297
sg2
S'Des \xc3\xa9lecteurs dont le nom figure sur la liste n\xe2\x80\x99ont pas \xc3\xa9t\xc3\xa9 emp\xc3\xaach\xc3\xa9s de voter'
p298
sg15
(dp299
g17
F3.866666699999999
sg18
F11.5166667
ssg9
S'330'
p300
sa(dp301
g7
g12
sg6
I1380639660
sg4
S'Des \xc3\xa9lecteurs dont le nom figure sur la liste ne sont pas emp\xc3\xaach\xc3\xa9s de voter'
p302
sg2
S'Des \xc3\xa9lecteurs dont le nom figure sur la liste n\xe2\x80\x99ont pas \xc3\xa9t\xc3\xa9 emp\xc3\xaach\xc3\xa9s de voter'
p303
sg15
(dp304
g17
F5.20054
sg18
F14.55639
ssg9
S'332'
p305
sa(dp306
g7
g12
sg6
I1380639660
sg4
S'Des \xc3\xa9lecteurs dont le nom figure sur la liste ne sont pas emp\xc3\xaach\xc3\xa9s de voter'
p307
sg2
S'Des \xc3\xa9lecteurs dont le nom figure sur la liste n\xe2\x80\x99ont pas \xc3\xa9t\xc3\xa9 emp\xc3\xaach\xc3\xa9s de voter'
p308
sg15
(dp309
g17
F4.047486000000001
sg18
F9.706374
ssg9
S'333'
p310
sa(dp311
g7
g8
sg6
I1380639660
sg4
S'Des \xc3\xa9lecteurs dont le nom figure sur la liste sont emp\xc3\xaach\xc3\xa9s de voter'
p312
sg2
S'Des \xc3\xa9lecteurs dont le nom figure sur la liste ont \xc3\xa9t\xc3\xa9 emp\xc3\xaach\xc3\xa9s de voter'
p313
sg15
(dp314
g17
F4.1682138
sg18
F10.0807298
ssg9
S'334'
p315
sa(dp316
g7
g12
sg6
I1380639660
sg4
S'Des \xc3\xa9lecteurs dont le nom figure sur la liste ne sont pas emp\xc3\xaach\xc3\xa9s de voter'
p317
sg2
S'Des \xc3\xa9lecteurs dont le nom figure sur la liste n\xe2\x80\x99ont pas \xc3\xa9t\xc3\xa9 emp\xc3\xaach\xc3\xa9s de voter'
p318
sg15
(dp319
g17
F3.858905
sg18
F11.6648502
ssg9
S'335'
p320
sa(dp321
g7
g12
sg6
I1380639660
sg4
S'Des \xc3\xa9lecteurs dont le nom figure sur la liste ne sont pas emp\xc3\xaach\xc3\xa9s de voter'
p322
sg2
S'Les \xc3\xa9lecteurs dont le nom figure sur la liste n\xe2\x80\x99ont pas \xc3\xa9t\xc3\xa9 emp\xc3\xaach\xc3\xa9s de voter'
p323
sg15
(dp324
g17
F6.426711000000001
sg18
F10.79573
ssg9
S'336'
p325
sa(dp326
g7
g12
sg6
I1380639660
sg4
S'Des \xc3\xa9lecteurs dont le nom figure sur la liste ne sont pas emp\xc3\xaach\xc3\xa9s de voter'
p327
sg2
S'Les \xc3\xa9lecteurs dont le nom figure sur la liste n\xe2\x80\x99ont pas \xc3\xa9t\xc3\xa9 emp\xc3\xaach\xc3\xa9s de voter'
p328
sg15
(dp329
g17
F4.0595968
sg18
F9.6870459
ssg9
S'337'
p330
sa(dp331
g7
g12
sg6
I1380639660
sg4
S'Des \xc3\xa9lecteurs dont le nom figurent sur la liste ne sont pas emp\xc3\xaach\xc3\xa9s de voter'
p332
sg2
S'Les \xc3\xa9lecteurs dont le nom figure sur la liste n\xe2\x80\x99ont pas \xc3\xa9t\xc3\xa9 emp\xc3\xaach\xc3\xa9s de voter'
p333
sg15
(dp334
g17
F4.163587
sg18
F11.53263
ssg9
S'338'
p335
sa(dp336
g7
g8
sg6
I1380639660
sg4
S'Des \xc3\xa9lecteurs dont le nom figure sur la liste sontemp\xc3\xaach\xc3\xa9s de voter'
p337
sg2
S'Les \xc3\xa9lecteurs dont le nom figure sur la liste ont  \xc3\xa9t\xc3\xa9 emp\xc3\xaach\xc3\xa9s de voter'
p338
sg15
(dp339
g17
F4.0595968
sg18
F9.6870459
ssg9
S'339'
p340
sa(dp341
g7
g12
sg6
I1380639660
sg4
S'Les \xc3\xa9lecteurs dont le nom figure sur la liste ne sont pas \xc3\xa9t\xc3\xa9 emp\xc3\xaach\xc3\xa9s de voter'
p342
sg2
S'Des \xc3\xa9lecteurs dont le nom figure sur la liste n\xe2\x80\x99ont pas \xc3\xa9t\xc3\xa9 emp\xc3\xaach\xc3\xa9s de voter'
p343
sg15
(dp344
g17
F4.0595968
sg18
F9.6870459
ssg9
S'340'
p345
sa(dp346
g7
g12
sg6
I1380639660
sg4
S'Des \xc3\xa9lecteurs dont le nom figurent sur la liste ne sont pas emp\xc3\xaach\xc3\xa9s de voter'
p347
sg2
S'Les \xc3\xa9lecteurs dont le nom figure sur la liste n\xe2\x80\x99ont pas \xc3\xa9t\xc3\xa9 emp\xc3\xaach\xc3\xa9s de voter'
p348
sg15
(dp349
g17
F3.8225216
sg18
F11.0725901
ssg9
S'341'
p350
sa(dp351
g7
g8
sg6
I1380639660
sg4
S'Des \xc3\xa9lecteurs dont le nom figure sur la liste sont emp\xc3\xaach\xc3\xa9s de voter'
p352
sg2
S'Des \xc3\xa9lecteurs dont le nom figure sur la liste ont \xc3\xa9t\xc3\xa9 emp\xc3\xaach\xc3\xa9s de voter'
p353
sg15
(dp354
g17
F3.8374034
sg18
F11.4855234
ssg9
S'342'
p355
sa(dp356
g2
S'Les \xc3\xa9lecteurs dont le nom figure sur la liste n\xe2\x80\x99ont pas \xc3\xa9t\xc3\xa9 emp\xc3\xaach\xc3\xa9s de voter'
p357
sg4
S'Des \xc3\xa9lecteurs dont le nom figure sur la liste ne sont pas emp\xc3\xaach\xc3\xa9s de voter'
p358
sg6
I1380639660
sg7
g12
sg9
S'343'
p359
sa(dp360
g7
g12
sg6
I1380639660
sg4
S'Des \xc3\xa9lecteurs dont le nom figure sur la liste sont emp\xc3\xaach\xc3\xa9s de voterr'
p361
sg2
S'Des \xc3\xa9lecteurs dont le nom figure sur la liste n\xe2\x80\x99ont pas \xc3\xa9t\xc3\xa9 emp\xc3\xaach\xc3\xa9s de voter'
p362
sg15
(dp363
g17
F9.433333
sg18
F13.366667
ssg9
S'344'
p364
sa(dp365
g7
g12
sg6
I1380639660
sg4
S'Des \xc3\xa9lecteurs dont le nom figure sur la liste ne sont pas emp\xc3\xaach\xc3\xa9s de voter'
p366
sg2
S'Les \xc3\xa9lecteurs dont le nom figure sur la liste n\xe2\x80\x99ont pas \xc3\xa9t\xc3\xa9 emp\xc3\xaach\xc3\xa9s de voter'
p367
sg15
(dp368
g17
F4.5580726
sg18
F9.6259546
ssg9
S'345'
p369
sa(dp370
g7
g12
sg6
I1380639660
sg4
S'Des \xc3\xa9lecteurs dont le nom figure sur la liste ne sont pas emp\xc3\xaach\xc3\xa9s de voter'
p371
sg2
S'Des \xc3\xa9lecteurs dont le nom figure sur la liste n\xe2\x80\x99ont pas \xc3\xa9t\xc3\xa9 emp\xc3\xaach\xc3\xa9s de voter'
p372
sg15
(dp373
g17
F4.047486000000001
sg18
F9.706374
ssg9
S'346'
p374
sa(dp375
g7
g12
sg6
I1380639660
sg4
S'Des \xc3\xa9lecteurs dont le nom figure sur la liste ne sont pas emp\xc3\xaach\xc3\xa9s de voter'
p376
sg2
S'Les \xc3\xa9lecteurs dont le nom figure sur la liste n\xe2\x80\x99ont pas \xc3\xa9t\xc3\xa9 emp\xc3\xaach\xc3\xa9s de voter'
p377
sg15
(dp378
g17
F4.7666667
sg18
F10.8333333
ssg9
S'347'
p379
sa(dp380
g2
S'Les \xc3\xa9lecteurs dont le nom figure sur la liste n\xe2\x80\x99ont pas \xc3\xa9t\xc3\xa9 emp\xc3\xaach\xc3\xa9s de voter'
p381
sg4
S'Des \xc3\xa9lecteurs dont le nom figure sur la liste ne sont pas emp\xc3\xaach\xc3\xa9s de voter'
p382
sg6
I1380639660
sg7
g12
sg9
S'348'
p383
sa(dp384
g2
S'Des \xc3\xa9lecteurs dont le nom figure sur la liste n\xe2\x80\x99ont pas \xc3\xa9t\xc3\xa9 emp\xc3\xaach\xc3\xa9s de voter'
p385
sg4
S'Des \xc3\xa9lecteurs dont le nom figurent sur la liste ne sont pas emp\xc3\xaach\xc3\xa9s de voter'
p386
sg6
I1380639660
sg7
g12
sg9
S'350'
p387
sa(dp388
g2
S'Des \xc3\xa9lecteurs dont le nom figure sur la liste n\xe2\x80\x99ont pas \xc3\xa9t\xc3\xa9 emp\xc3\xaach\xc3\xa9s de voter'
p389
sg4
S'Des \xc3\xa9lecteurs dont le nom figurent sur la liste ne sont pas emp\xc3\xaach\xc3\xa9s de voter'
p390
sg6
I1380639660
sg7
g12
sg9
S'351'
p391
sa(dp392
g7
g12
sg6
I1380639660
sg4
S'Des \xc3\xa9lecteurs dont le nom figure sur la liste ne sont pas emp\xc3\xaach\xc3\xa9s de voter'
p393
sg2
S'Les \xc3\xa9lecteurs dont le nom figure sur la liste n\xe2\x80\x99ont pas \xc3\xa9t\xc3\xa9 emp\xc3\xaach\xc3\xa9s de voter'
p394
sg15
(dp395
g17
F3.260045
sg18
F11.19949
ssg9
S'352'
p396
sa(dp397
g2
S'Des \xc3\xa9lecteurs dont le nom figure sur la liste n\xe2\x80\x99ont pas \xc3\xa9t\xc3\xa9 emp\xc3\xaach\xc3\xa9s de voter'
p398
sg4
S'Des \xc3\xa9lecteurs dont le nom figure sur la liste ne sont pas emp\xc3\xaach\xc3\xa9s de voter'
p399
sg6
I1380639660
sg7
g12
sg9
S'355'
p400
sa(dp401
g7
g8
sg6
I1380639660
sg4
S'Des \xc3\xa9lecteurs dont le nom figure sur la liste sont emp\xc3\xaach\xc3\xa9s de voter'
p402
sg2
S'Les \xc3\xa9lecteurs dont le nom figure sur la liste ont \xc3\xa9t\xc3\xa9 emp\xc3\xaach\xc3\xa9s de voter'
p403
sg15
(dp404
g17
F3.7827632
sg18
F12.2490697
ssg9
S'356'
p405
sa(dp406
g2
S'Des \xc3\xa9lecteurs dont le nom figure sur la liste n\xe2\x80\x99ont pas \xc3\xa9t\xc3\xa9 emp\xc3\xaach\xc3\xa9s de voter'
p407
sg4
S'Des \xc3\xa9lecteurs dont le nom figurent sur la liste ne sont pas emp\xc3\xaach\xc3\xa9s de voter'
p408
sg6
I1380639660
sg7
g12
sg9
S'357'
p409
sa(dp410
g7
g12
sg6
I1380639600
sg4
S'Des \xc3\xa9lecteurs dont le nom figurent sur la liste ne sont pas emp\xc3\xaach\xc3\xa9s de voter'
p411
sg2
S'Des \xc3\xa9lecteurs dont le nom figurent sur la liste ne sont pas \xc3\xa9t\xc3\xa9 emp\xc3\xaach\xc3\xa9s de voter'
p412
sg15
(dp413
g17
F4.022287
sg18
F11.38003
ssg9
S'329'
p414
sa(dp415
g2
S'Des \xc3\xa9lecteurs dont le nom figurent sur la liste sont \xc3\xa9t\xc3\xa9 emp\xc3\xaach\xc3\xa9s de voter'
p416
sg4
S'Des \xc3\xa9lecteurs dont le nom figurent sur la liste sont emp\xc3\xaach\xc3\xa9s de voter'
p417
sg6
I1380639600
sg7
g8
sg9
S'331'
p418
sa(dp419
g2
S'Les \xc3\xa9lecteurs dont le nom figure sur la liste n\xe2\x80\x99ont pas \xc3\xa9t\xc3\xa9 emp\xc3\xaach\xc3\xa9s de voter'
p420
sg4
S'Des \xc3\xa9lecteurs dont le nom figurent sur la liste ne sont pas emp\xc3\xaach\xc3\xa9s de voter'
p421
sg6
I1380639600
sg7
g12
sg9
S'353'
p422
sa(dp423
g7
g12
sg6
I1380639600
sg4
S'Des \xc3\xa9lecteurs dont le nom figurent sur la liste ne sont pas emp\xc3\xaach\xc3\xa9s de voter'
p424
sg2
S'Les \xc3\xa9lecteurs dont le nom figure sur la liste n\xe2\x80\x99ont pas \xc3\xa9t\xc3\xa9 emp\xc3\xaach\xc3\xa9s de voter'
p425
sg15
(dp426
g17
F3.866666699999999
sg18
F11.5166667
ssg9
S'354'
p427
sa(dp428
g7
g12
sg6
I1380639600
sg4
S'Des \xc3\xa9lecteurs dont le nom figurent sur la liste ne sont pas emp\xc3\xaach\xc3\xa9s de voter'
p429
sg2
S'Des \xc3\xa9lecteurs dont le nom figure sur la liste n\xe2\x80\x99ont pas \xc3\xa9t\xc3\xa9 emp\xc3\xaach\xc3\xa9s de voter'
p430
sg15
(dp431
g17
F3.8407337
sg18
F11.4878714
ssg9
S'358'
p432
sa(dp433
g7
g12
sg6
I1380639600
sg4
S'Des \xc3\xa9lecteurs dont le nom figure sur la liste ne sont pas emp\xc3\xaach\xc3\xa9s de voter'
p434
sg2
S'Des \xc3\xa9lecteurs dont le nom figure sur la liste n\xe2\x80\x99ont pas \xc3\xa9t\xc3\xa9 emp\xc3\xaach\xc3\xa9s de voter'
p435
sg15
(dp436
g17
F3.8638989
sg18
F11.529068
ssg9
S'359'
p437
sa(dp438
g2
S'Des \xc3\xa9lecteurs dont le nom figure sur la liste ont \xc3\xa9t\xc3\xa9 emp\xc3\xaach\xc3\xa9s de voter'
p439
sg4
S'Des \xc3\xa9lecteurs dont le nom figurent sur la liste ne sont pas emp\xc3\xaach\xc3\xa9s de voter'
p440
sg6
I1380639600
sg7
g8
sg9
S'360'
p441
sa(dp442
g2
S'Des \xc3\xa9lecteurs dont le nom figure sur la liste ont \xc3\xa9t\xc3\xa9 emp\xc3\xaach\xc3\xa9s de voter'
p443
sg4
S'Des \xc3\xa9lecteurs dont le nom figure sur la liste sont  emp\xc3\xaach\xc3\xa9s de voter'
p444
sg6
I1380639600
sg7
g8
sg9
S'361'
p445
sa(dp446
g7
g12
sg6
I1380639600
sg4
S'Des \xc3\xa9lecteurs dont le nom figure sur la liste ne sont pas emp\xc3\xaach\xc3\xa9s de voter'
p447
sg2
S'Des \xc3\xa9lecteurs dont le nom figure sur la liste n\xe2\x80\x99ont pas \xc3\xa9t\xc3\xa9 emp\xc3\xaach\xc3\xa9s de voter'
p448
sg15
(dp449
g17
F4.95604
sg18
F9.936546
ssg9
S'372'
p450
sa(dp451
g2
S'Des \xc3\xa9lecteurs dont le nom figure sur la liste ont \xc3\xa9t\xc3\xa9 emp\xc3\xaach\xc3\xa9s de voter'
p452
sg4
S'Des \xc3\xa9lecteurs dont le nom figure sur la liste sont emp\xc3\xaach\xc3\xa9s de voter'
p453
sg6
I1380639600
sg7
g8
sg9
S'376'
p454
sa(dp455
g7
g12
sg6
I1380639600
sg4
S'Des \xc3\xa9lecteurs dont le nom figure sur la liste ne sont pas emp\xc3\xaach\xc3\xa9s de voter'
p456
sg2
S'Des \xc3\xa9lecteurs dont le nom figure sur la liste n\xe2\x80\x99ont pas \xc3\xa9t\xc3\xa9 emp\xc3\xaach\xc3\xa9s de voter'
p457
sg15
(dp458
g17
F4.575472
sg18
F13.68459
ssg9
S'377'
p459
sa(dp460
g7
g12
sg6
I1380639600
sg4
S'Des \xc3\xa9lecteurs dont le nom figure sur la liste ne sont pas emp\xc3\xaach\xc3\xa9s de voter'
p461
sg2
S'Des \xc3\xa9lecteurs dont le nom figure sur la liste ne sont pas  emp\xc3\xaach\xc3\xa9s de voter'
p462
sg15
(dp463
g17
F4.047486000000001
sg18
F9.706374
ssg9
S'382'
p464
sa(dp465
g7
g12
sg6
I1380633060
sg4
S'Les repr\xc3\xa9sentants des partis politiques et les observateurs sont libres de faire leur travail'
p466
sg2
S'Les repr\xc3\xa9sentants des partis politiques et les observateurs sont libres de faire correctement leur travail'
p467
sg15
(dp468
g17
F4.047486000000001
sg18
F9.706374
ssg9
S'165'
p469
sa(dp470
g7
g12
sg6
I1380633060
sg4
S'Les repr\xc3\xa9sentants des partis politiques et les observateurs sont libres de faire leur travail'
p471
sg2
S'Les repr\xc3\xa9sentants des partis politiques et les observateurs sont libres de faire correctement leur travail'
p472
sg15
(dp473
g17
F4.0595968
sg18
F9.6870459
ssg9
S'166'
p474
sa(dp475
g7
g12
sg6
I1380633060
sg4
S'Les repr\xc3\xa9sentants des partis politiques et les observateurs sont libres de faire leur travail'
p476
sg2
S'Les repr\xc3\xa9sentants des partis politiques et les observateurs sont libres de faire correctement leur travail'
p477
sg15
(dp478
g17
F6.388762
sg18
F10.0731
ssg9
S'167'
p479
sa(dp480
g7
g12
sg6
I1380633060
sg4
S'Les repr\xc3\xa9sentants des partis politiques et les observateurs sont libres de faire leur travail'
p481
sg2
S'Les repr\xc3\xa9sentants des partis politiques et les observateurs sont libres de faire correctement leur travail'
p482
sg15
(dp483
g17
F3.3194374
sg18
F13.914399
ssg9
S'168'
p484
sa(dp485
g7
g12
sg6
I1380633060
sg4
S'Les repr\xc3\xa9sentants des partis politiques et les observateurs sont libres de faire leur travail'
p486
sg2
S'Les repr\xc3\xa9sentants des partis politiques et les observateurs sont libres de faire correctement leur travail'
p487
sg15
(dp488
g17
F4.047486000000001
sg18
F9.706374
ssg9
S'169'
p489
sa(dp490
g7
g12
sg6
I1380633060
sg4
S'Les repr\xc3\xa9sentants des partis politiques et les observateurs sont libres de faire leur travail'
p491
sg2
S'Les repr\xc3\xa9sentants des partis politiques et les observateurs sont libres de faire correctement leur travail'
p492
sg15
(dp493
g17
F4.5580726
sg18
F9.6259546
ssg9
S'170'
p494
sa(dp495
g7
g12
sg6
I1380633060
sg4
S'Les repr\xc3\xa9sentants des partis politiques et les observateurs sont libres de faire leur travail'
p496
sg2
S'Les repr\xc3\xa9sentants des partis politiques et les observateurs sont libres de faire correctement leur travail'
p497
sg15
(dp498
g17
F2.9166667
sg18
F11.15
ssg9
S'171'
p499
sa(dp500
g7
g12
sg6
I1380633060
sg4
S'Les repr\xc3\xa9sentants des partis politiques et le observateurs sont libres de faire leur travail'
p501
sg2
S'Les repr\xc3\xa9sentants des partis politiques et les observateurs sont libres de faire correctement leur travail'
p502
sg15
(dp503
g17
F7.323872
sg18
F13.58363
ssg9
S'172'
p504
sa(dp505
g7
g12
sg6
I1380633060
sg4
S'Les repr\xc3\xa9sentants des partis politiques et les observateurs sont libres de faire leur travail'
p506
sg2
S'Les repr\xc3\xa9sentants des partis politiques et les observateurs sont libres de faire correctement leur travail'
p507
sg15
(dp508
g17
F3.791952
sg18
F11.40269
ssg9
S'173'
p509
sa(dp510
g2
S'Les repr\xc3\xa9sentants des partis politiques et les observateurs sont libres de faire correctement leur travail'
p511
sg6
I1380633060
sg7
g12
sg9
S'174'
p512
sa(dp513
g7
g8
sg6
I1380633060
sg4
S'Les repr\xc3\xa9sentants des partis politiques et les observateurs ne sont pas libres de faire correctement leur travail'
p514
sg2
S'Les repr\xc3\xa9sentants des partis politiques et les observateurs ne sont pas libres de faire correctement leur travail'
p515
sg15
(dp516
g17
F3.549228
sg18
F11.02268
ssg9
S'175'
p517
sa(dp518
g7
g12
sg6
I1380633060
sg4
S'Les repr\xc3\xa9sentants des partis politiques et le observateurs sont libres de faire correctement leur travail'
p519
sg2
S'Les repr\xc3\xa9sentants des partis politiques et le observateurs sont libres de faire correctement leur travail'
p520
sg15
(dp521
g17
F4.56924
sg18
F11.11655
ssg9
S'176'
p522
sa(dp523
g7
g12
sg6
I1380633060
sg4
S'Les repr\xc3\xa9sentants des partis politiques et le observateurs sont libres de faire correctement leur travail'
p524
sg2
S'Les repr\xc3\xa9sentants des partis politiques et le observateurs sont libres de faire correctement leur travail'
p525
sg15
(dp526
g17
F3.9330033
sg18
F15.1098159
ssg9
S'177'
p527
sa(dp528
g7
g8
sg6
I1380633060
sg4
S'Les repr\xc3\xa9sentants des partis politiques et les observateurs ne sont pas libres de faire leur travail'
p529
sg2
S'Les repr\xc3\xa9sentants des partis politiques et les observateurs ne sont pas libres de faire correctement leur travail'
p530
sg15
(dp531
g17
F3.549228
sg18
F11.02268
ssg9
S'178'
p532
sa(dp533
g7
g12
sg6
I1380633060
sg4
S'Les repr\xc3\xa9sentants des partis politiques et les observateurs sont libres de faire leur travail'
p534
sg2
S'Les repr\xc3\xa9sentants des partis politiques et les observateurs sont libres de faire correctement leur travail'
p535
sg15
(dp536
g17
F3.6420296
sg18
F11.5319098
ssg9
S'179'
p537
sa(dp538
g7
g12
sg6
I1380633060
sg4
S'Les repr\xc3\xa9sentants des partis politiques et les observateurs sont libres de faire leur travail'
p539
sg2
S'Les repr\xc3\xa9sentants des partis politiques et les observateurs sont libres de faire correctement leur travail'
p540
sg15
(dp541
g17
F3.6420296
sg18
F11.5319098
ssg9
S'180'
p542
sa(dp543
g7
g12
sg6
I1380633060
sg4
S'Les repr\xc3\xa9sentants des partis politiques et les observateurs sont libres de faire leur travail'
p544
sg2
S'Les repr\xc3\xa9sentants des partis politiques et les observateurs sont libres de faire correctement leur travail'
p545
sg15
(dp546
g17
F4.54861
sg18
F13.7261
ssg9
S'181'
p547
sa(dp548
g7
g12
sg6
I1380633060
sg4
S'Les repr\xc3\xa9sentants des partis politiques et les observateurs sont libres de faire leur travail'
p549
sg2
S'Les repr\xc3\xa9sentants des partis politiques et les observateurs sont libres de faire correctement leur travail'
p550
sg15
(dp551
g17
F4.047486000000001
sg18
F9.706374
ssg9
S'182'
p552
sa(dp553
g7
g12
sg6
I1380633060
sg4
S'Les repr\xc3\xa9sentants des partis politiques et les observateurs sont libres de faire leur travail'
p554
sg2
S'Les repr\xc3\xa9sentants des partis politiques et les observateurs sont libres de faire correctement leur travail'
p555
sg15
(dp556
g17
F4.0595968
sg18
F9.6870459
ssg9
S'183'
p557
sa(dp558
g7
g12
sg6
I1380633060
sg4
S'Les repr\xc3\xa9sentants des partis politiques et les observateurs sont libres de faire leur travail'
p559
sg2
S'Les repr\xc3\xa9sentants des partis politiques et les observateurs sont libres de faire correctement leur travail'
p560
sg15
(dp561
g17
F4.0595968
sg18
F9.6870459
ssg9
S'184'
p562
sa(dp563
g7
g12
sg6
I1380633060
sg4
S'Les repr\xc3\xa9sentants des partis politiques et les observateurs sont libres de faire leur travail'
p564
sg2
S'Les repr\xc3\xa9sentants des partis politiques et les observateurs sont libres de faire correctement leur travail'
p565
sg15
(dp566
g17
F4.047486000000001
sg18
F9.706374
ssg9
S'185'
p567
sa(dp568
g7
g12
sg6
I1380633060
sg4
S'Les repr\xc3\xa9sentants des partis politiques et les observateurs sont libres de faire leur travail'
p569
sg2
S'Les repr\xc3\xa9sentants des partis politiques et les observateurs sont libres de faire correctement leur travail'
p570
sg15
(dp571
g17
F4.047486000000001
sg18
F9.706374
ssg9
S'186'
p572
sa(dp573
g7
g12
sg6
I1380633060
sg4
S'Les repr\xc3\xa9sentants des partis politiques et les observateurs sont libres de faire leur travail'
p574
sg2
S'Les repr\xc3\xa9sentants des partis politiques et les observateurs sont libres de faire correctement leur travail'
p575
sg15
(dp576
g17
F6.209571
sg18
F10.686
ssg9
S'187'
p577
sa(dp578
g7
g12
sg6
I1380633060
sg4
S'Les repr\xc3\xa9sentants des partis politiques et les observateurs sont libres de faire leur travail'
p579
sg2
S'Les repr\xc3\xa9sentants des partis politiques et les observateurs sont libres de faire correctement leur travail'
p580
sg15
(dp581
g17
F4.0595968
sg18
F9.6870459
ssg9
S'188'
p582
sa(dp583
g2
S'Les repr\xc3\xa9sentants des partis politiques et les observateurs sont libres de faire correctement leur travail'
p584
sg4
S'Les repr\xc3\xa9sentants des partis politiques et les observateurs sont libres de faire leur travail'
p585
sg6
I1380633060
sg7
g12
sg9
S'189'
p586
sa(dp587
g7
g12
sg6
I1380633060
sg4
S'Les repr\xc3\xa9sentants des partis politiques et les observateurs sont libres de faire leur travail'
p588
sg2
S'Les repr\xc3\xa9sentants des partis politiques et les observateurs sont libres de faire correctement leur travail'
p589
sg15
(dp590
g17
F4.0595968
sg18
F9.6870459
ssg9
S'190'
p591
sa(dp592
g7
g12
sg6
I1380633060
sg4
S'Les repr\xc3\xa9sentants des partis politiques et les observateurs sont libres de faire leur travail'
p593
sg2
S'Les repr\xc3\xa9sentants des partis politiques et les observateurs sont libres de faire correctement leur travail'
p594
sg15
(dp595
g17
F6.521471
sg18
F14.28475
ssg9
S'191'
p596
sa(dp597
g7
g12
sg6
I1380633060
sg4
S'Les repr\xc3\xa9sentants des partis politiques et les observateurs sont libres de faire leur travail'
p598
sg2
S'Les repr\xc3\xa9sentants des partis politiques et les observateurs sont libres de faire correctement leur travail'
p599
sg15
(dp600
g17
F3.7681771
sg18
F11.5020752
ssg9
S'193'
p601
sa(dp602
g7
g12
sg6
I1380633060
sg4
S'Les repr\xc3\xa9sentants des partis politiques et les observateurs sont libres de faire leur travail'
p603
sg2
S'Les repr\xc3\xa9sentants des partis politiques et les observateurs sont libres de faire correctement leur travail'
p604
sg15
(dp605
g17
F2.9166667
sg18
F11.15
ssg9
S'194'
p606
sa(dp607
g7
g12
sg6
I1380633060
sg4
S'Les repr\xc3\xa9sentants des partis politiques et les observateurs sont libres de faire correctement leur travail'
p608
sg2
S'Les repr\xc3\xa9sentants des partis politiques et les observateurs sont libres de faire correctement leur travail'
p609
sg15
(dp610
g17
F4.275392399999999
sg18
F11.2665498
ssg9
S'195'
p611
sa(dp612
g2
S'Les repr\xc3\xa9sentants des partis politiques et les observateurs sont libres de faire correctement leur travail'
p613
sg4
S'Les repr\xc3\xa9sentants des partis politiques et le observateurs sont libres de faire correctement leur travail'
p614
sg6
I1380633060
sg7
g12
sg9
S'196'
p615
sa(dp616
g7
g12
sg6
I1380633060
sg4
S'Les repr\xc3\xa9sentants des partis politiques et le observateurs sont libres de faire correctement leur travail'
p617
sg2
S'Les repr\xc3\xa9sentants des partis politiques et les observateurs sont libres de faire correctement leur travail'
p618
sg15
(dp619
g17
F4.575472
sg18
F13.68459
ssg9
S'198'
p620
sa(dp621
g7
g12
sg6
I1380633000
sg4
S'Les repr\xc3\xa9sentants des partis politiques et les observateurs sont libres de faire leur travail'
p622
sg2
S'Les repr\xc3\xa9sentants des partis politiques et les observateurs sont libres de faire correctement leur travail'
p623
sg15
(dp624
g17
F4.1682138
sg18
F10.0807298
ssg9
S'192'
p625
sa(dp626
g7
g12
sg6
I1380633000
sg4
S'Les repr\xc3\xa9sentants des partis politiques et les observateurs sont libres de faire leur travail'
p627
sg2
S'Les repr\xc3\xa9sentants des partis politiques et les observateurs sont libres de faire correctement leur travail'
p628
sg15
(dp629
g17
F3.8374034
sg18
F11.4855234
ssg9
S'197'
p630
sa(dp631
g7
g12
sg6
I1380633000
sg4
S'Les repr\xc3\xa9sentants des partis politiques et les observateurs sont libres de faire leur travail'
p632
sg2
S'Les repr\xc3\xa9sentants des partis politiques et les observateurs sont libres de faire correctement leur travail'
p633
sg15
(dp634
g17
F7.3666667
sg18
F12.65
ssg9
S'199'
p635
sa(dp636
g7
g12
sg6
I1380633000
sg4
S'Les repr\xc3\xa9sentants des partis politiques et le observateurs sont libres de faire correctement leur travail'
p637
sg2
S'Les repr\xc3\xa9sentants des partis politiques et les observateurs sont libres de faire correctement leur travail'
p638
sg15
(dp639
g17
F4.047486000000001
sg18
F9.706374
ssg9
S'200'
p640
sa(dp641
g7
g12
sg6
I1380633000
sg4
S'Les repr\xc3\xa9sentants des partis politiques et le observateurs sont libres de faire correctement leur travail'
p642
sg2
S'Les repr\xc3\xa9sentants des partis politiques et les observateurs sont libres de faire correctement leur travail'
p643
sg15
(dp644
g17
F4.022465599999999
sg18
F9.1954432
ssg9
S'201'
p645
sa(dp646
g2
S'Les repr\xc3\xa9sentants des partis politiques et les observateurs sont libres de faire correctement leur travail.'
p647
sg4
S'Les repr\xc3\xa9sentants des partis politiques et le observateurs sont libres de faire correctement leur travail'
p648
sg6
I1380633000
sg7
g12
sg9
S'203'
p649
sa(dp650
g7
g12
sg6
I1380633000
sg4
S'Les repr\xc3\xa9sentants des partis politiques et le observateurs sont libres de faire correctement leur travail'
p651
sg2
S'Les repr\xc3\xa9sentants des partis politiques et les observateurs sont libres de faire correctement leur travail'
p652
sg15
(dp653
g17
F3.866666699999999
sg18
F11.5166667
ssg9
S'204'
p654
sa(dp655
g2
S'Les repr\xc3\xa9sentants des partis politiques et les observateurs sont libres de faire correctement leur travail'
p656
sg4
S'Les repr\xc3\xa9sentants des partis politiques et le observateurs sont libres de faire correctement leur travail'
p657
sg6
I1380633000
sg7
g12
sg9
S'206'
p658
sa(dp659
g7
g12
sg6
I1380633000
sg4
S'l'
p660
sg2
S'Les repr\xc3\xa9sentants des partis politiques et les observateurs sont libres de faire correctement leur travail'
p661
sg15
(dp662
g17
F3.549228
sg18
F11.02268
ssg9
S'207'
p663
sa(dp664
g7
g12
sg6
I1380633000
sg4
S'Les repr\xc3\xa9sentants des partis politiques et le observateurs sont libres de faire correctement leur travail'
p665
sg2
S'Les repr\xc3\xa9sentants des partis politiques et les observateurs sont libres de faire correctement leur travail'
p666
sg15
(dp667
g17
F2.9333333
sg18
F11.9833333
ssg9
S'209'
p668
sa(dp669
g7
g12
sg6
I1380633000
sg4
S'Les repr\xc3\xa9sentants des partis politiques et le observateurs sont libres de faire correctement leur travail'
p670
sg2
S'Les repr\xc3\xa9sentants des partis politiques et les observateurs sont libres de faire correctement leur travail'
p671
sg15
(dp672
g17
F6.209571
sg18
F10.686
ssg9
S'212'
p673
sa(dp674
g7
g12
sg6
I1380633000
sg4
S'Les repr\xc3\xa9sentants des partis politiques et les observateurs sont libres de faire leur travail'
p675
sg2
S'Les repr\xc3\xa9sentants des partis politiques et les observateurs sont libres de faire correctement leur travail'
p676
sg15
(dp677
g17
F4.0595968
sg18
F9.6870459
ssg9
S'213'
p678
sa(dp679
g7
g12
sg6
I1380633000
sg4
S'Les repr\xc3\xa9sentants des partis politiques et les observateurs sont libres de faire leur travail'
p680
sg2
S'Les repr\xc3\xa9sentants des partis politiques et les observateurs sont libres de faire correctement leur travail'
p681
sg15
(dp682
g17
F3.8638989
sg18
F11.529068
ssg9
S'214'
p683
sa(dp684
g7
g12
sg6
I1380633000
sg4
S'Les repr\xc3\xa9sentants des partis politiques et les observateurs sont libres de faire leur travail'
p685
sg2
S'Les repr\xc3\xa9sentants des partis politiques et les observateurs sont libres de faire correctement leur travail'
p686
sg15
(dp687
g17
F3.7780892
sg18
F11.5293978
ssg9
S'215'
p688
sa(dp689
g7
g12
sg6
I1380633000
sg4
S'Les repr\xc3\xa9sentants des partis politiques et les observateurs sont libres de faire leur travail'
p690
sg2
S'Les repr\xc3\xa9sentants des partis politiques et les observateurs sont libres de faire correctement leur travail'
p691
sg15
(dp692
g17
F5.485658
sg18
F10.41299
ssg9
S'217'
p693
sa(dp694
g7
g12
sg6
I1380633000
sg4
S'Les repr\xc3\xa9sentants des partis politiques et les observateurs sont libres de faire leur travail'
p695
sg2
S'Les repr\xc3\xa9sentants des partis politiques et les observateurs sont libres de faire correctement leur travail'
p696
sg15
(dp697
g17
F4.575472
sg18
F13.68459
ssg9
S'219'
p698
sa(dp699
g7
g12
sg6
I1380633000
sg4
S'Les repr\xc3\xa9sentants des partis politiques et les observateurs sont libres de faire leur travail'
p700
sg2
S'Les repr\xc3\xa9sentants des partis politiques et les observateurs sont libres de faire correctement leur travail'
p701
sg15
(dp702
g17
F5.980118699999999
sg18
F10.3610179
ssg9
S'221'
p703
sa(dp704
g7
g12
sg6
I1380633000
sg4
S'Les repr\xc3\xa9sentants des parti politiques et les observateurs sont libres de faire leur travail'
p705
sg2
S'Les repr\xc3\xa9sentants des partis politiques et les observateurs sont libres de faire correctement leur travail'
p706
sg15
(dp707
g17
F3.8293683
sg18
F10.7337425
ssg9
S'223'
p708
sa(dp709
g7
g12
sg6
I1380633000
sg4
S'Les repr\xc3\xa9sentants des partis politiques et les observateurs sont libres de faire leur travail'
p710
sg2
S'Les repr\xc3\xa9sentants des partis politiques et les observateurs sont libres de faire correctement leur travail'
p711
sg15
(dp712
g17
F3.8293683
sg18
F10.7337425
ssg9
S'224'
p713
sa(dp714
g7
g12
sg6
I1380633000
sg4
S'[16:30:11] TETKA JeanBrice: 3 oui= Les repr\xc3\xa9sentants des partis politiques et le observateurs sont libres de faire leur travail'
p715
sg2
S'Les repr\xc3\xa9sentants des partis politiques et les observateurs sont libres de faire correctement leur travail'
p716
sg15
(dp717
g17
F2.9166667
sg18
F11.15
ssg9
S'226'
p718
sa(dp719
g2
S'Les repr\xc3\xa9sentants des partis politiques et les observateurs sont libres de faire correctement leur travail'
p720
sg4
S'Les repr\xc3\xa9sentants des partis politiques et le observateurs sont libres de faire leur travail'
p721
sg6
I1380633000
sg7
g12
sg9
S'228'
p722
sa(dp723
g2
S'Les repr\xc3\xa9sentants des partis politiques et les observateurs sont libres de faire correctement leur travail'
p724
sg4
S'Les repr\xc3\xa9sentants des partis politiques et le observateurs sont libres de faire correctement leur travail'
p725
sg6
I1380633000
sg7
g12
sg9
S'230'
p726
sa(dp727
g7
g12
sg6
I1380633000
sg4
S'Les repr\xc3\xa9sentants des partis politiques et les observateurs sont libres de faire leur travail'
p728
sg2
S'Les repr\xc3\xa9sentants des partis politiques et le observateurs sont libres de faire correctement leur travail'
p729
sg15
(dp730
g17
F4.047486000000001
sg18
F9.706374
ssg9
S'503'
p731
sa(dp732
g7
S'Unknown'
p733
sg6
I1380629520
sg4
S"Ouverture conforme de l'urne"
p734
sg2
S'Le pr\xc3\xa9sident de la commission locale de vote a ouvert l\xe2\x80\x99urne en pr\xc3\xa9sence des membres de la commission, des observateurs accr\xc3\xa9dit\xc3\xa9s et des \xc3\xa9lecteurs d\xc3\xa9j\xc3\xa0 pr\xc3\xa9sents'
p735
sg15
(dp736
g17
F4.0595968
sg18
F9.6870459
ssg9
S'158'
p737
sa(dp738
g7
g733
sg6
I1380629520
sg4
S"Ouverture conforme de l'urne"
p739
sg2
S'Le pr\xc3\xa9sident de la commission locale de vote a ouvert l\xe2\x80\x99urne en pr\xc3\xa9sence des membres de la commission, des observateurs accr\xc3\xa9dit\xc3\xa9s et des \xc3\xa9lecteurs d\xc3\xa9j\xc3\xa0 pr\xc3\xa9sents'
p740
sg15
(dp741
g17
F4.0595968
sg18
F9.6870459
ssg9
S'160'
p742
sa(dp743
g7
g733
sg6
I1380628860
sg4
S'Ouverture conforme des Urnes'
p744
sg2
S'Le pr\xc3\xa9sident de la commission locale de vote a ouvert l\xe2\x80\x99urne en pr\xc3\xa9sence des membres de la commission, des observateurs accr\xc3\xa9dit\xc3\xa9s et des \xc3\xa9lecteurs d\xc3\xa9j\xc3\xa0 pr\xc3\xa9sents'
p745
sg15
(dp746
g17
F4.047486000000001
sg18
F9.706374
ssg9
S'151'
p747
sa(dp748
g7
g12
sg6
I1380628860
sg4
S'Ouverture conforme des Bureaux'
p749
sg2
S'Ouverture conforme du bureau de vote'
p750
sg15
(dp751
g17
F6.466011
sg18
F12.62307
ssg9
S'155'
p752
sa(dp753
g7
g733
sg6
I1380625800
sg4
S'Ouverture conforme des Urnes'
p754
sg2
S'Le pr\xc3\xa9sident de la commission locale de vote a ouvert l\xe2\x80\x99urne en pr\xc3\xa9sence des membres de la commission, des observateurs accr\xc3\xa9dit\xc3\xa9s et des \xc3\xa9lecteurs d\xc3\xa9j\xc3\xa0 pr\xc3\xa9sents'
p755
sg15
(dp756
g17
F3.891829
sg18
F11.230173
ssg9
S'129'
p757
sa(dp758
g7
g733
sg6
I1380625800
sg4
S'Ouverture conforme des Urnes'
p759
sg2
S'Le pr\xc3\xa9sident de la commission locale de vote a ouvert l\xe2\x80\x99urne en pr\xc3\xa9sence des membres de la commission, des observateurs accr\xc3\xa9dit\xc3\xa9s et des \xc3\xa9lecteurs d\xc3\xa9j\xc3\xa0 pr\xc3\xa9sents'
p760
sg15
(dp761
g17
F6.426711000000001
sg18
F10.79573
ssg9
S'130'
p762
sa(dp763
g7
g733
sg6
I1380625800
sg4
S'Ouverture conforme des Urnes'
p764
sg2
S'Le pr\xc3\xa9sident de la commission locale de vote a ouvert l\xe2\x80\x99urne en pr\xc3\xa9sence des membres de la commission, des observateurs accr\xc3\xa9dit\xc3\xa9s et des \xc3\xa9lecteurs d\xc3\xa9j\xc3\xa0 pr\xc3\xa9sents'
p765
sg15
(dp766
g17
F3.866666699999999
sg18
F11.5166667
ssg9
S'132'
p767
sa(dp768
g7
g733
sg6
I1380625800
sg4
S'Ouverture conforme des Urnes'
p769
sg2
S'Le pr\xc3\xa9sident de la commission locale de vote a ouvert l\xe2\x80\x99urne en pr\xc3\xa9sence des membres de la commission, des observateurs accr\xc3\xa9dit\xc3\xa9s et des \xc3\xa9lecteurs d\xc3\xa9j\xc3\xa0 pr\xc3\xa9sents'
p770
sg15
(dp771
g17
F7.3666667
sg18
F12.65
ssg9
S'133'
p772
sa(dp773
g2
S'Les repr\xc3\xa9sentants des partis politiques et le observateurs ne sont pas libres de faire correctement leur travail'
p774
sg4
S'Les repr\xc3\xa9sentants des partis politiques et les observateurs ne sont pas libres de faire leur travail'
p775
sg6
I1380625800
sg7
g8
sg9
S'216'
p776
sa(dp777
g7
g733
sg6
I1380625800
sg4
S"Ouverture conforme de l'urne"
p778
sg2
S"Le Pr\xc3\xa9sident de la commission locale de vote a ouvert l'urne en pr\xc3\xa9sence des membres de la commission, des observateurs accr\xc3\xa9dit\xc3\xa9s et des \xc3\xa9lecteurs d\xc3\xa9j\xc3\xa0 pr\xc3\xa9sents"
p779
sg15
(dp780
g17
F4.047486000000001
sg18
F9.706374
ssg9
S'231'
p781
sa(dp782
g7
g733
sg6
I1380625740
sg4
S'Ouverture conforme des Urnes'
p783
sg2
S'Le pr\xc3\xa9sident de la commission locale de vote a ouvert l\xe2\x80\x99urne en pr\xc3\xa9sence des membres de la commission, des observateurs accr\xc3\xa9dit\xc3\xa9s et des \xc3\xa9lecteurs d\xc3\xa9j\xc3\xa0 pr\xc3\xa9sents'
p784
sg15
(dp785
g17
F3.8638989
sg18
F11.529068
ssg9
S'135'
p786
sa(dp787
g7
g733
sg6
I1380625740
sg4
S'Ouverture conforme des Urnes'
p788
sg2
S'Le pr\xc3\xa9sident de la commission locale de vote a ouvert l\xe2\x80\x99urne en pr\xc3\xa9sence des membres de la commission, des observateurs accr\xc3\xa9dit\xc3\xa9s et des \xc3\xa9lecteurs d\xc3\xa9j\xc3\xa0 pr\xc3\xa9sents'
p789
sg15
(dp790
g17
F4.633333299999999
sg18
F9.45
ssg9
S'137'
p791
sa(dp792
g7
g12
sg6
I1380625740
sg4
S'Ouverture conforme des Bureaux'
p793
sg2
S'ouverture conforme du bureau de vote'
p794
sg15
(dp795
g17
F7.323872
sg18
F13.58363
ssg9
S'138'
p796
sa(dp797
g7
g733
sg6
I1380625740
sg4
S'Ouverture conforme des Urnes'
p798
sg2
S'Le pr\xc3\xa9sident de la commission locale de vote a ouvert l\xe2\x80\x99urne en pr\xc3\xa9sence des membres de la commission, des observateurs accr\xc3\xa9dit\xc3\xa9s et des \xc3\xa9lecteurs d\xc3\xa9j\xc3\xa0 pr\xc3\xa9sents'
p799
sg15
(dp800
g17
F11.05
sg18
F14.15
ssg9
S'140'
p801
sa(dp802
g7
g733
sg6
I1380625740
sg4
S'Ouverture conforme des Urnes'
p803
sg2
S'Le pr\xc3\xa9sident de la commission locale de vote a ouvert l\xe2\x80\x99urne en pr\xc3\xa9sence des membres de la commission, des observateurs accr\xc3\xa9dit\xc3\xa9s et des \xc3\xa9lecteurs d\xc3\xa9j\xc3\xa0 pr\xc3\xa9sents'
p804
sg15
(dp805
g17
F4.56924
sg18
F11.11655
ssg9
S'143'
p806
sa(dp807
g7
g733
sg6
I1380625740
sg4
S'Ouverture conforme des Urnes'
p808
sg2
S'Le pr\xc3\xa9sident de la commission locale de vote a ouvert l\xe2\x80\x99urne en pr\xc3\xa9sence des membres de la commission, des observateurs accr\xc3\xa9dit\xc3\xa9s et des \xc3\xa9lecteurs d\xc3\xa9j\xc3\xa0 pr\xc3\xa9sents'
p809
sg15
(dp810
g17
F5.980118699999999
sg18
F10.3610179
ssg9
S'144'
p811
sa(dp812
g7
g733
sg6
I1380625740
sg4
S'Ouverture conforme des Urnes'
p813
sg2
S'Le pr\xc3\xa9sident de la commission locale de vote a ouvert l\xe2\x80\x99urne en pr\xc3\xa9sence des membres de la commission, des observateurs accr\xc3\xa9dit\xc3\xa9s et des \xc3\xa9lecteurs d\xc3\xa9j\xc3\xa0 pr\xc3\xa9sents'
p814
sg15
(dp815
g17
F2.9166667
sg18
F11.15
ssg9
S'145'
p816
sa(dp817
g7
g733
sg6
I1380625740
sg4
S"Ouverture conforme de l'urne"
p818
sg2
S'Le pr\xc3\xa9sident de la commission locale de vote a ouvert l\xe2\x80\x99urne en pr\xc3\xa9sence des membres de la commission, des observateurs accr\xc3\xa9dit\xc3\xa9s et des \xc3\xa9lecteurs d\xc3\xa9j\xc3\xa0 pr\xc3\xa9sents'
p819
sg15
(dp820
g17
F3.8638989
sg18
F11.529068
ssg9
S'148'
p821
sa(dp822
g7
g733
sg6
I1380625740
sg4
S'Ouverture conforme des Urnes'
p823
sg2
S'Le pr\xc3\xa9sident de la commission locale de vote a ouvert l\xe2\x80\x99urne en pr\xc3\xa9sence des membres de la commission, des observateurs accr\xc3\xa9dit\xc3\xa9s et des \xc3\xa9lecteurs d\xc3\xa9j\xc3\xa0 pr\xc3\xa9sents.'
p824
sg15
(dp825
g17
F2.9333333
sg18
F11.9833333
ssg9
S'152'
p826
sa(dp827
g7
g733
sg6
I1380625740
sg4
S'Ouverture conforme des Urnes'
p828
sg2
S'Le pr\xc3\xa9sident de la commission locale de vote ouvert l\xe2\x80\x99urne en pr\xc3\xa9sence des membres de la commission, des observateurs accr\xc3\xa9dit\xc3\xa9s et des \xc3\xa9lecteurs d\xc3\xa9j\xc3\xa0 pr\xc3\xa9sents'
p829
sg15
(dp830
g17
F4.047486000000001
sg18
F9.706374
ssg9
S'154'
p831
sa(dp832
g2
S'Le pr\xc3\xa9sident de la commission locale de vote a ouvert l\xe2\x80\x99urne en pr\xc3\xa9sence des membres de la commission, des observateurs accr\xc3\xa9dit\xc3\xa9s et des \xc3\xa9lecteurs d\xc3\xa9j\xc3\xa0 pr\xc3\xa9sents'
p833
sg4
S'Ouverture conforme des Urnes'
p834
sg6
I1380625740
sg7
g733
sg9
S'157'
p835
sa(dp836
g7
g733
sg6
I1380625740
sg4
S'Ouverture conforme des Urnes'
p837
sg2
S'Le pr\xc3\xa9sident de la commission locale de vote a ouvert l\xe2\x80\x99urne en pr\xc3\xa9sence des membres de la commission, des observateurs accr\xc3\xa9dit\xc3\xa9s et des \xc3\xa9lecteurs d\xc3\xa9j\xc3\xa0 pr\xc3\xa9sents.'
p838
sg15
(dp839
g17
F5.20054
sg18
F14.55639
ssg9
S'159'
p840
sa(dp841
g7
g733
sg6
I1380625740
sg4
S"Ouverture conforme de l'urne"
p842
sg2
S'Le pr\xc3\xa9sident de la commission locale de vote a ouvert l\xe2\x80\x99urne en pr\xc3\xa9sence des membres de la commission, des observateurs accr\xc3\xa9dit\xc3\xa9s et des \xc3\xa9lecteurs d\xc3\xa9j\xc3\xa0 pr\xc3\xa9sents.'
p843
sg15
(dp844
g17
F6.209571
sg18
F10.686
ssg9
S'161'
p845
sa(dp846
g7
g733
sg6
I1380625740
sg4
S"Ouverture conforme de l'urne"
p847
sg2
S'Le pr\xc3\xa9sident de la commission locale de vote a ouvert l\xe2\x80\x99urne en pr\xc3\xa9sence des membres de la commission, des observateurs accr\xc3\xa9dit\xc3\xa9s et des \xc3\xa9lecteurs d\xc3\xa9j\xc3\xa0 pr\xc3\xa9sents.'
p848
sg15
(dp849
g17
F3.8374034
sg18
F11.4855234
ssg9
S'162'
p850
sa(dp851
g2
S'Le pr\xc3\xa9sident de la commission locale de vote a ouvert l\xe2\x80\x99urne en pr\xc3\xa9sence des membres de la commission, des observateurs accr\xc3\xa9dit\xc3\xa9s et des \xc3\xa9lecteurs d\xc3\xa9j\xc3\xa0 pr\xc3\xa9sents.'
p852
sg4
S'Ouverture conforme des urnes'
p853
sg6
I1380625740
sg7
g733
sg9
S'163'
p854
sa(dp855
g2
S'Le pr\xc3\xa9sident de la commission locale de vote a ouvert l\xe2\x80\x99urne en pr\xc3\xa9sence des membres de la commission, des observateurs accr\xc3\xa9dit\xc3\xa9s et des \xc3\xa9lecteurs d\xc3\xa9j\xc3\xa0 pr\xc3\xa9sents'
p856
sg4
S'Ouverture conforme des urnes'
p857
sg6
I1380625740
sg7
g733
sg9
S'164'
p858
sa(dp859
g7
g733
sg6
I1380625740
sg4
S"Ouverture conforme de l'urne"
p860
sg2
S"Le Pr\xc3\xa9sident de la commission locale de vote a ouvert l'urne en pr\xc3\xa9sence des membres de la commission, des observateurs accr\xc3\xa9dit\xc3\xa9s et des \xc3\xa9lecteurs d\xc3\xa9j\xc3\xa0 [15:27:10] TETKA JeanBrice: Ouverture conforme de l'urne"
p861
sg15
(dp862
g17
F3.8374034
sg18
F11.4855234
ssg9
S'202'
p863
sa(dp864
g7
g733
sg6
I1380625740
sg4
S"Ouverture conforme de l'urne"
p865
sg2
S"Le Pr\xc3\xa9sident de la commission locale de vote a ouvert l'urne en pr\xc3\xa9sence des membres de la commission, des observateurs accr\xc3\xa9dit\xc3\xa9s et des \xc3\xa9lecteurs d\xc3\xa9j\xc3\xa0 pr\xc3\xa9sents"
p866
sg15
(dp867
g17
F5.20054
sg18
F14.55639
ssg9
S'205'
p868
sa(dp869
g7
g733
sg6
I1380625740
sg4
S"Ouverture conforme de l'urne"
p870
sg2
S"Le Pr\xc3\xa9sident de la commission locale de vote a ouvert l'urne en pr\xc3\xa9sence des membres de la commission, des observateurs accr\xc3\xa9dit\xc3\xa9s et des \xc3\xa9lecteurs d\xc3\xa9j\xc3\xa0 pr\xc3\xa9sents"
p871
sg15
(dp872
g17
F4.047486000000001
sg18
F9.706374
ssg9
S'208'
p873
sa(dp874
g2
S"Le Pr\xc3\xa9sident de la commission locale de vote a ouvert l'urne en pr\xc3\xa9sence des membres de la commission, des observateurs accr\xc3\xa9dit\xc3\xa9s et des \xc3\xa9lecteurs d\xc3\xa9j\xc3\xa0 pr\xc3\xa9sents"
p875
sg4
S"Ouverture conforme de l'urne"
p876
sg6
I1380625740
sg7
g733
sg9
S'211'
p877
sa(dp878
g7
g12
sg6
I1380625740
sg4
S'Les repr\xc3\xa9sentants des partis politiques et les observateurs sont libres de faire leur travail'
p879
sg2
S'Les repr\xc3\xa9sentants des partis politiques et les observateurs sont libres de faire correctement leur travail'
p880
sg15
(dp881
g17
F4.155169
sg18
F9.231387999999999
ssg9
S'218'
p882
sa(dp883
g2
S"Le Pr\xc3\xa9sident de la commission locale de vote a ouvert l'urne en pr\xc3\xa9sence des membres de la commission, des observateurs accr\xc3\xa9dit\xc3\xa9s et des \xc3\xa9lecteurs d\xc3\xa9j\xc3\xa0 pr\xc3\xa9sents"
p884
sg4
S"Ouverture conforme de l'urne"
p885
sg6
I1380625740
sg7
g733
sg9
S'220'
p886
sa(dp887
g7
g733
sg6
I1380625740
sg4
S"Ouverture conforme de l'urne"
p888
sg2
S"Le Pr\xc3\xa9sident de la commission locale de vote a ouvert l'urne en pr\xc3\xa9sence des membres de la commission, des observateurs accr\xc3\xa9dit\xc3\xa9s et des \xc3\xa9lecteurs d\xc3\xa9j\xc3\xa0 pr\xc3\xa9sents"
p889
sg15
(dp890
g17
F3.866666699999999
sg18
F11.5166667
ssg9
S'222'
p891
sa(dp892
g2
S"L'ouverture du bureau de vote a eu lieu \xc3\xa0 8h"
p893
sg4
S'Ouverture des Bureaux de vote \xc3\xa0 8h'
p894
sg6
I1380625740
sg7
g12
sg9
S'225'
p895
sa(dp896
g2
S"Pr\xc3\xa9sident de la commission locale de vote a ouvert l'urne en pr\xc3\xa9sence des membres de la commission, des observateurs accr\xc3\xa9dit\xc3\xa9s et des \xc3\xa9lecteurs d\xc3\xa9j\xc3\xa0 pr\xc3\xa9sents"
p897
sg4
S"Ouverture conforme de l'urne"
p898
sg6
I1380625740
sg7
g733
sg9
S'227'
p899
sa(dp900
g7
g733
sg6
I1380625740
sg4
S"Ouverture conforme de l'urne"
p901
sg2
S"Le Pr\xc3\xa9sident de la commission locale de vote a ouvert l'urne en pr\xc3\xa9sence des membres de la commission, des observateurs accr\xc3\xa9dit\xc3\xa9s et des \xc3\xa9lecteurs d\xc3\xa9j\xc3\xa0 pr\xc3\xa9sents"
p902
sg15
(dp903
g17
F5.2365685
sg18
F13.914399
ssg9
S'232'
p904
sa(dp905
g7
g733
sg6
I1380625740
sg4
S"Ouverture conforme de l'urne"
p906
sg2
S"Le Pr\xc3\xa9sident de la commission locale de vote a ouvert l'urne en pr\xc3\xa9sence des membres de la commission, des observateurs accr\xc3\xa9dit\xc3\xa9s et des \xc3\xa9lecteurs d\xc3\xa9j\xc3\xa0 pr\xc3\xa9sents"
p907
sg15
(dp908
g17
F4.0595968
sg18
F9.6870459
ssg9
S'234'
p909
sa(dp910
g2
S"Le Pr\xc3\xa9sident de la commission locale de vote a ouvert l'urne en pr\xc3\xa9sence des membres de la commission, des observateurs accr\xc3\xa9dit\xc3\xa9s et des \xc3\xa9lecteurs d\xc3\xa9j\xc3\xa0 pr\xc3\xa9sents"
p911
sg4
S"Ouverture conforme de l'urne"
p912
sg6
I1380625740
sg7
g733
sg9
S'236'
p913
sa(dp914
g2
S"Le Pr\xc3\xa9sident de la commission locale de vote a ouvert l'urne en pr\xc3\xa9sence des membres de la commission, des observateurs accr\xc3\xa9dit\xc3\xa9s et des \xc3\xa9lecteurs d\xc3\xa9j\xc3\xa0 pr\xc3\xa9sents"
p915
sg4
S'Ouverture conforme des urnes'
p916
sg6
I1380625740
sg7
g733
sg9
S'349'
p917
sa(dp918
g7
g733
sg6
I1380625740
sg4
S"Ouverture conforme de l'urne"
p919
sg2
S'Le pr\xc3\xa9sident de la commission locale de vote a ouvert l\xe2\x80\x99urne en pr\xc3\xa9sence des membres de la commission, des observateurs accr\xc3\xa9dit\xc3\xa9s et des \xc3\xa9lecteurs d\xc3\xa9ja pr\xc3\xa9sents'
p920
sg15
(dp921
g17
F4.2904513
sg18
F9.4144962
ssg9
S'501'
p922
sa(dp923
g7
g733
sg6
I1380625740
sg4
S"Ouverture conforme de l'urne"
p924
sg2
S'Le pr\xc3\xa9sident de la commission locale de vote a ouvert l\xe2\x80\x99urne en pr\xc3\xa9sence des membres de la commission, des observateurs accr\xc3\xa9dit\xc3\xa9s et des \xc3\xa9lecteurs d\xc3\xa9ja pr\xc3\xa9sents'
p925
sg15
(dp926
g17
F4.0595968
sg18
F9.6870459
ssg9
S'502'
p927
sa(dp928
g7
g12
sg6
I1380619740
sg4
S'Ouverture conforme des bureaux de vote'
p929
sg2
S'Ouverture conforme du bureau de vote.'
p930
sg15
(dp931
g17
F4.022287
sg18
F11.38003
ssg9
S'111'
p932
sa(dp933
g7
g12
sg6
I1380619740
sg4
S'Ouverture conforme des bureaux de vote'
p934
sg2
S'Ouverture conforme du bureau de vote.'
p935
sg15
(dp936
g17
F2.9166667
sg18
F11.15
ssg9
S'112'
p937
sa(dp938
g2
S'Ouverture conforme du bureau de vote.'
p939
sg4
S'Ouverture conforme du bureau de vote.'
p940
sg6
I1380619740
sg7
g12
sg9
S'113'
p941
sa(dp942
g7
g12
sg6
I1380619740
sg4
S'Ouverture tardive des Bureaux de vote'
p943
sg2
S'ouverture tardive du bureau de vote'
p944
sg15
(dp945
g17
F4.0595968
sg18
F9.6870459
ssg9
S'114'
p946
sa(dp947
g7
g12
sg6
I1380619740
sg4
S'Ouverture des Bureaux de vote \xc3\xa0 8h'
p948
sg2
S'Ouverture  conforme du bureau de vote \xc3\xa0 08h'
p949
sg15
(dp950
g17
F4.5385626
sg18
F12.0204247
ssg9
S'115'
p951
sa(dp952
g7
g12
sg6
I1380619740
sg4
S'Ouverture tardive des Bureaux de vote'
p953
sg2
S'Ouverture tardive de bureau de vote.'
p954
sg15
(dp955
g17
F3.8374034
sg18
F11.4855234
ssg9
S'116'
p956
sa(dp957
g7
g12
sg6
I1380619740
sg4
S'Ouverture tardive des Bureaux de vote'
p958
sg2
S'Ouverture conforme du bureau de vote \xc3\xa0 08h'
p959
sg15
(dp960
g17
F2.9166667
sg18
F11.15
ssg9
S'117'
p961
sa(dp962
g7
g12
sg6
I1380619740
sg4
S"Ouverture conforme de l'urne"
p963
sg2
S'Ouverture conforme du bureau de vote.'
p964
sg15
(dp965
g17
F4.0595968
sg18
F9.6870459
ssg9
S'118'
p966
sa(dp967
g2
S'Ouverture conforme du bureau de vote.'
p968
sg4
S'Ouverture conforme du bureau de vote.'
p969
sg6
I1380619740
sg7
g12
sg9
S'119'
p970
sa(dp971
g7
g12
sg6
I1380619740
sg4
S'Ouverture conforme'
p972
sg2
S'Ouverture conforme du bureau de vote.'
p973
sg15
(dp974
g17
F4.0595968
sg18
F9.6870459
ssg9
S'120'
p975
sa(dp976
g7
g12
sg6
I1380619740
sg4
S'Ouverture  conforme du bureau de vote.'
p977
sg2
S'Ouverture  conforme du bureau de vote.'
p978
sg15
(dp979
g17
F4.444421999999999
sg18
F11.62448
ssg9
S'121'
p980
sa(dp981
g2
S'Ouverture conforme du bureau de vote'
p982
sg4
S'Ouverture conforme des bureaux de vote'
p983
sg6
I1380619740
sg7
g12
sg9
S'122'
p984
sa(dp985
g7
g12
sg6
I1380619740
sg4
S'Ouverture conforme du bureau de vote.'
p986
sg2
S'Ouverture conforme du bureau de vote'
p987
sg15
(dp988
g17
F4.047486000000001
sg18
F9.706374
ssg9
S'123'
p989
sa(dp990
g2
S'ouverture tardive du bureau de vote'
p991
sg4
S'Ouverture conforme du bureau de vote.'
p992
sg6
I1380619740
sg7
g12
sg9
S'124'
p993
sa(dp994
g7
g12
sg6
I1380619740
sg4
S'Ouverture conforme du bureau de vote.'
p995
sg2
S'Ouverture conforme du bureau de vote'
p996
sg15
(dp997
g17
F4.633333299999999
sg18
F9.45
ssg9
S'125'
p998
sa(dp999
g7
g12
sg6
I1380619740
sg4
S'Ouverture conforme du bureau de vote.'
p1000
sg2
S'Ouverture conforme du bureau de vote'
p1001
sg15
(dp1002
g17
F10.283333
sg18
F13.483333
ssg9
S'126'
p1003
sa(dp1004
g7
g12
sg6
I1380619740
sg4
S'Ouverture conforme des Bureaux'
p1005
sg2
S'Ouverture conforme du bureau de vote'
p1006
sg15
(dp1007
g17
F4.9333333
sg18
F13.3
ssg9
S'127'
p1008
sa(dp1009
g7
g12
sg6
I1380619740
sg4
S'Ouverture conforme des Bureaux'
p1010
sg2
S'Ouverture conforme du bureau de vote'
p1011
sg15
(dp1012
g17
F4.0595968
sg18
F9.6870459
ssg9
S'128'
p1013
sa(dp1014
g2
S'ouverture tardive du bureau de vote'
p1015
sg4
S'Ouverture non conforme des Bureaux'
p1016
sg6
I1380619740
sg7
g12
sg9
S'131'
p1017
sa(dp1018
g2
S'ouverture conforme du bureau de vote'
p1019
sg4
S'Ouverture conforme du bureau de vote'
p1020
sg6
I1380619740
sg7
g12
sg9
S'134'
p1021
sa(dp1022
g2
S'ouverture tardive du bureau de vote'
p1023
sg4
S'Ouverture non conforme des Bureaux de vote'
p1024
sg6
I1380619740
sg7
g12
sg9
S'136'
p1025
sa(dp1026
g7
g12
sg6
I1380619740
sg4
S'Ouverture conforme du bureau de vote'
p1027
sg2
S'ouverture conforme du bureau de vote'
p1028
sg15
(dp1029
g17
F6.426711000000001
sg18
F10.79573
ssg9
S'139'
p1030
sa(dp1031
g7
g12
sg6
I1380619740
sg4
S'Ouverture conforme du bureau de vote'
p1032
sg2
S'ouverture conforme du bureau de vote'
p1033
sg15
(dp1034
g17
F3.7827632
sg18
F12.2490697
ssg9
S'141'
p1035
sa(dp1036
g2
S'ouverture conforme du bureau de vote'
p1037
sg4
S'Ouverture conforme du bureau de vote.'
p1038
sg6
I1380619740
sg7
g12
sg9
S'142'
p1039
sa(dp1040
g7
g12
sg6
I1380619740
sg4
S'ouverture tardive du bureau de vote'
p1041
sg2
S'ouverture tardive du bureau de vote'
p1042
sg15
(dp1043
g17
F4.0595968
sg18
F9.6870459
ssg9
S'146'
p1044
sa(dp1045
g7
g12
sg6
I1380619740
sg4
S'Ouverture des Bureaux de vote \xc3\xa0 8h'
p1046
sg2
S'ouverture conforme du bureau de vote'
p1047
sg15
(dp1048
g17
F4.0595968
sg18
F9.6870459
ssg9
S'147'
p1049
sa(dp1050
g7
g12
sg6
I1380619740
sg4
S': Ouverture des Bureaux de vote \xc3\xa0 8h'
p1051
sg2
S'ouverture conforme du bureau de vote'
p1052
sg15
(dp1053
g17
F4.662732
sg18
F12.37078
ssg9
S'149'
p1054
sa(dp1055
g7
g12
sg6
I1380619740
sg4
S': Ouverture des Bureaux de vote \xc3\xa0 8h'
p1056
sg2
S'ouverture conforme du bureau de vote'
p1057
sg15
(dp1058
g17
F3.8374034
sg18
F11.4855234
ssg9
S'150'
p1059
sa(dp1060
g7
g12
sg6
I1380619740
sg4
S'Ouverture des Bureaux de vote \xc3\xa0 8h'
p1061
sg2
S'ouverture conforme du bureau de vote'
p1062
sg15
(dp1063
g17
F5.485658
sg18
F10.41299
ssg9
S'153'
p1064
sa(dp1065
g7
g12
sg6
I1380619740
sg4
S'Ouverture des Bureaux de vote \xc3\xa0 8h'
p1066
sg2
S'ouverture conforme du bureau de vote'
p1067
sg15
(dp1068
g17
F2.9166667
sg18
F11.15
ssg9
S'156'
p1069
sa(dp1070
g7
g12
sg6
I1380619740
sg4
S"L'ouverture du bureau de vote a eu lieu \xc3\xa0 8h"
p1071
sg2
S"L'ouverture du bureau de vote a eu lieu \xc3\xa0 8h"
p1072
sg15
(dp1073
g17
F3.8638989
sg18
F11.529068
ssg9
S'229'
p1074
sa(dp1075
g2
S"L'ouverture du bureau de vote a eu lieu \xc3\xa0 8h"
p1076
sg4
S'Ouverture des Bureaux de vote \xc3\xa0 8h'
p1077
sg6
I1380619740
sg7
g12
sg9
S'233'
p1078
sa(dp1079
g7
g12
sg6
I1380619740
sg4
S'Ouverture des Bureaux de vote \xc3\xa0 8h'
p1080
sg2
S"L'ouverture du bureau de vote a eu lieu \xc3\xa0 8h"
p1081
sg15
(dp1082
g17
F2.9166667
sg18
F11.15
ssg9
S'235'
p1083
sa(dp1084
g7
g12
sg6
I1380619740
sg4
S"L'ouverture du bureau de vote a eu lieu \xc3\xa0 8h"
p1085
sg2
S"L'ouverture du bureau de vote a eu lieu \xc3\xa0 8h"
p1086
sg15
(dp1087
g17
F4.047486000000001
sg18
F9.706374
ssg9
S'238'
p1088
sa(dp1089
g2
S"L'ouverture du bureau de vote n'a pas eu lieu \xc3\xa0 8h"
p1090
sg4
S"L'ouverture du bureau de vote a eu lieu \xc3\xa0 8h"
p1091
sg6
I1380619740
sg7
g8
sg9
S'240'
p1092
sa(dp1093
g7
g8
sg6
I1380619740
sg4
S"L'ouverture du bureau de vote a eu lieu \xc3\xa0 8h"
p1094
sg2
S"L'ouverture du bureau de vote n'a pas eu lieu \xc3\xa0 8h"
p1095
sg15
(dp1096
g17
F4.0595968
sg18
F9.6870459
ssg9
S'241'
p1097
sa(dp1098
g7
g12
sg6
I1380619740
sg4
S'Ouverture des Bureaux de vote \xc3\xa0 8h'
p1099
sg2
S"L'ouverture du bureau de vote a eu lieu \xc3\xa0 8h"
p1100
sg15
(dp1101
g17
F3.866666699999999
sg18
F11.5166667
ssg9
S'244'
p1102
sa(dp1103
g7
g12
sg6
I1380619740
sg4
S'Ouverture des Bureaux de vote \xc3\xa0 8h'
p1104
sg2
S"L'ouverture du bureau de vote a eu lieu \xc3\xa0 8h"
p1105
sg15
(dp1106
g17
F9.080787299999999
sg18
F12.975219
ssg9
S'245'
p1107
sa(dp1108
g7
g12
sg6
I1380619740
sg4
S'Ouverture des Bureaux de vote \xc3\xa0 8h'
p1109
sg2
S"L'ouverture du bureau de vote a eu lieu \xc3\xa0 8h"
p1110
sg15
(dp1111
g17
F7.323872
sg18
F13.58363
ssg9
S'247'
p1112
sa(dp1113
g7
g12
sg6
I1380619740
sg4
S'Ouverture des Bureaux de vote \xc3\xa0 8h'
p1114
sg2
S"L'ouverture du bureau de vote a eu lieu \xc3\xa0 8h"
p1115
sg15
(dp1116
g17
F4.047486000000001
sg18
F9.706374
ssg9
S'249'
p1117
sa(dp1118
g7
g12
sg6
I1380619740
sg4
S'Ouverture des Bureaux de vote \xc3\xa0 8h'
p1119
sg2
S"L'ouverture du bureau de vote a eu lieu \xc3\xa0 8h"
p1120
sg15
(dp1121
g17
F4.575472
sg18
F13.68459
ssg9
S'251'
p1122
sa(dp1123
g7
g12
sg6
I1380619740
sg4
S'Ouverture des Bureaux de vote \xc3\xa0 8h'
p1124
sg2
S"L'ouverture du bureau de vote a eu lieu \xc3\xa0 8h"
p1125
sg15
(dp1126
g17
F4.575472
sg18
F13.68459
ssg9
S'253'
p1127
sa(dp1128
g7
g12
sg6
I1380619680
sg4
S'Ouverture des Bureaux de vote \xc3\xa0 8h'
p1129
sg2
S"L'ouverture du bureau de vote a eu lieu \xc3\xa0 8h"
p1130
sg15
(dp1131
g17
F3.8638989
sg18
F11.529068
ssg9
S'237'
p1132
sa(dp1133
g7
g12
sg6
I1380619680
sg4
S'Ouverture des Bureaux de vote \xc3\xa0 8h'
p1134
sg2
S"L'ouverture du bureau de vote a eu lieu \xc3\xa0 8h"
p1135
sg15
(dp1136
g17
F4.047486000000001
sg18
F9.706374
ssg9
S'239'
p1137
sa(dp1138
g7
g8
sg6
I1380619680
sg4
S'Ouverture tardive des Bureaux de vote'
p1139
sg2
S"L'ouverture du bureau de vote n'a pas eu lieu \xc3\xa0 8h"
p1140
sg15
(dp1141
g17
F4.163587
sg18
F11.53263
ssg9
S'242'
p1142
sa(dp1143
g7
g8
sg6
I1380619680
sg4
S'Ouverture tardive des Bureaux de vote'
p1144
sg2
S"L'ouverture du bureau de vote n'a pas eu lieu \xc3\xa0 8h"
p1145
sg15
(dp1146
g17
F4.047486000000001
sg18
F9.706374
ssg9
S'243'
p1147
sa(dp1148
g2
S"L'ouverture du bureau de vote n'a pas eu lieu \xc3\xa0 8h"
p1149
sg4
S'Ouverture tardive des Bureaux de vote'
p1150
sg6
I1380619680
sg7
g8
sg9
S'246'
p1151
sa(dp1152
g7
g12
sg6
I1380619680
sg4
S'Ouverture des Bureaux de vote \xc3\xa0 8h'
p1153
sg2
S"L'ouverture du bureau de vote a eu lieu \xc3\xa0 8h"
p1154
sg15
(dp1155
g17
F10.2742916
sg18
F14.0275509
ssg9
S'248'
p1156
sa(dp1157
g7
g12
sg6
I1380619680
sg4
S'Ouverture des Bureaux de vote \xc3\xa0 8h'
p1158
sg2
S"L'ouverture du bureau de vote a eu lieu \xc3\xa0 8h"
p1159
sg15
(dp1160
g17
F4.0595968
sg18
F9.6870459
ssg9
S'250'
p1161
sa(dp1162
g7
g12
sg6
I1380619680
sg4
S'Ouverture des Bureaux de vote \xc3\xa0 8h'
p1163
sg2
S"L'ouverture du bureau de vote a eu lieu \xc3\xa0 8h"
p1164
sg15
(dp1165
g17
F4.047486000000001
sg18
F9.706374
ssg9
S'252'
p1166
sa(dp1167
g7
g12
sg6
I1380619680
sg4
S'Ouverture des Bureaux de vote \xc3\xa0 8h'
p1168
sg2
S"L'ouverture du bureau de vote a eu lieu \xc3\xa0 8h"
p1169
sg15
(dp1170
g17
F6.750211999999999
sg18
F11.81085
ssg9
S'254'
p1171
sa(dp1172
g7
g12
sg6
I1380619680
sg4
S'Ouverture des Bureaux de vote \xc3\xa0 8h'
p1173
sg2
S"L'ouverture du bureau de vote a eu lieu \xc3\xa0 8h"
p1174
sg15
(dp1175
g17
F7.323872
sg18
F13.58363
ssg9
S'255'
p1176
sa(dp1177
g7
g12
sg6
I1380619680
sg4
S'Ouverture des Bureaux de vote \xc3\xa0 8h'
p1178
sg2
S"L'ouverture du bureau de vote a eu lieu \xc3\xa0 8h"
p1179
sg15
(dp1180
g17
F4.54861
sg18
F13.7261
ssg9
S'256'
p1181
sa(dp1182
g7
g12
sg6
I1380619680
sg4
S'Ouverture des Bureaux de vote \xc3\xa0 8h'
p1183
sg2
S"L'ouverture du bureau de vote a eu lieu \xc3\xa0 8h"
p1184
sg15
(dp1185
g17
F5.485658
sg18
F10.41299
ssg9
S'257'
p1186
sa(dp1187
g7
g12
sg6
I1380619680
sg4
S'Ouverture des Bureaux de vote \xc3\xa0 8h'
p1188
sg2
S"L'ouverture du bureau de vote a eu lieu \xc3\xa0 8h"
p1189
sg15
(dp1190
g17
F5.485658
sg18
F10.41299
ssg9
S'258'
p1191
sa(dp1192
g2
S"L'ouverture du bureau de vote a eu lieu \xc3\xa0 8h"
p1193
sg4
S'Ouverture des Bureaux de vote \xc3\xa0 8h'
p1194
sg6
I1380619680
sg7
g12
sg9
S'259'
p1195
sa(dp1196
g2
S"L'ouverture du bureau de vote a eu lieu \xc3\xa0 8h"
p1197
sg4
S'Ouverture des Bureaux de vote \xc3\xa0 8h'
p1198
sg6
I1380619680
sg7
g12
sg9
S'260'
p1199
sa(dp1200
g2
S"L'ouverture du bureau de vote a eu lieu \xc3\xa0 8h"
p1201
sg4
S'Ouverture des Bureaux de vote \xc3\xa0 8h'
p1202
sg6
I1380619680
sg7
g12
sg9
S'261'
p1203
sa(dp1204
g7
g8
sg6
I1380619680
sg4
S'Ouverture des Bureaux de vote \xc3\xa0 8h'
p1205
sg2
S"L'ouverture du bureau de vote n'a pas eu lieu \xc3\xa0 8h"
p1206
sg15
(dp1207
g17
F4.0473278
sg18
F9.711424
ssg9
S'262'
p1208
sa(dp1209
g7
g12
sg6
I1380619680
sg4
S'Ouverture des Bureaux de vote \xc3\xa0 8h'
p1210
sg2
S"L'ouverture du bureau de vote a eu lieu \xc3\xa0 8h"
p1211
sg15
(dp1212
g17
F4.0595968
sg18
F9.6870459
ssg9
S'263'
p1213
sa(dp1214
g7
g12
sg6
I1380619680
sg4
S'Ouverture des Bureaux de vote \xc3\xa0 8h'
p1215
sg2
S"L'ouverture du bureau de vote a eu lieu \xc3\xa0 8h"
p1216
sg15
(dp1217
g17
F3.9330033
sg18
F15.1098159
ssg9
S'264'
p1218
sa(dp1219
g7
g12
sg6
I1380619680
sg4
S'Ouverture des Bureaux de vote \xc3\xa0 8h'
p1220
sg2
S"L'ouverture du bureau de vote a eu lieu \xc3\xa0 8h"
p1221
sg15
(dp1222
g17
F4.047486000000001
sg18
F9.706374
ssg9
S'265'
p1223
sa(dp1224
g7
g12
sg6
I1380619680
sg4
S'Ouverture des Bureaux de vote \xc3\xa0 8h'
p1225
sg2
S"L'ouverture du bureau de vote a eu lieu \xc3\xa0 8h"
p1226
sg15
(dp1227
g17
F4.047486000000001
sg18
F9.706374
ssg9
S'266'
p1228
sa(dp1229
g2
S"L'ouverture du bureau de vote a eu lieu \xc3\xa0 8h"
p1230
sg4
S'Ouverture des Bureaux de vote \xc3\xa0 8h'
p1231
sg6
I1380619680
sg7
g12
sg9
S'267'
p1232
sa(dp1233
g7
g12
sg6
I1380619680
sg4
S'Ouverture des Bureaux de vote \xc3\xa0 8h'
p1234
sg2
S"L'ouverture du bureau de vote a eu lieu \xc3\xa0 8h"
p1235
sg15
(dp1236
g17
F4.575472
sg18
F13.68459
ssg9
S'268'
p1237
sa(dp1238
g7
g12
sg6
I1380619680
sg4
S'Ouverture des Bureaux de vote \xc3\xa0 8h'
p1239
sg2
S"L'ouverture du bureau de vote a eu lieu \xc3\xa0 8h"
p1240
sg15
(dp1241
g17
F4.1682138
sg18
F10.0807298
ssg9
S'269'
p1242
sa(dp1243
g7
g12
sg6
I1380619680
sg4
S'Ouverture des Bureaux de vote \xc3\xa0 8h'
p1244
sg2
S"L'ouverture du bureau de vote a eu lieu \xc3\xa0 8h"
p1245
sg15
(dp1246
g17
F3.8374034
sg18
F11.4855234
ssg9
S'270'
p1247
sa(dp1248
g7
g12
sg6
I1380619680
sg4
S'ouverture des bureaux de vote \xc3\xa0 8h'
p1249
sg2
S"L'ouverture du bureau de vote a eu lieu \xc3\xa0 8h"
p1250
sg15
(dp1251
g17
F3.891829
sg18
F11.230173
ssg9
S'486'
p1252
sa(dp1253
g7
g12
sg6
I1380619680
sg4
S'ouverture des bureaux de vote \xc3\xa0 8h'
p1254
sg2
S"L'ouverture du bureau de vote a eu lieu \xc3\xa0 8h"
p1255
sg15
(dp1256
g17
F5.485658
sg18
F10.41299
ssg9
S'487'
p1257
sa(dp1258
g7
g12
sg6
I1380619680
sg4
S'ouverture des bureaux de vote \xc3\xa0 8h'
p1259
sg2
S"L'ouverture du bureau de vote a eu lieu \xc3\xa0 8h"
p1260
sg15
(dp1261
g17
F3.9975049
sg18
F10.7196501
ssg9
S'488'
p1262
sa(dp1263
g7
g12
sg6
I1380619680
sg4
S'ouverture des bureaux de vote \xc3\xa0 8h'
p1264
sg2
S'L\xe2\x80\x99ouverture du bureau de vote a eu lieu \xc3\xa0 8 h'
p1265
sg15
(dp1266
g17
F4.0595968
sg18
F9.6870459
ssg9
S'489'
p1267
sa(dp1268
g7
g12
sg6
I1380619680
sg4
S'ouverture des bureaux de vote \xc3\xa0 8h'
p1269
sg2
S"L'ouverture du bureau de vote a eu lieu \xc3\xa0 8h"
p1270
sg15
(dp1271
g17
F4.0595968
sg18
F9.6870459
ssg9
S'490'
p1272
sa(dp1273
g7
g12
sg6
I1380619680
sg4
S'Ouverture des Bureaux de vote \xc3\xa0 8h'
p1274
sg2
S'L\xe2\x80\x99ouverture du bureau de vote a eu lieu \xc3\xa0 8 h'
p1275
sg15
(dp1276
g17
F10.6315589
sg18
F14.6587821
ssg9
S'491'
p1277
sa(dp1278
g7
g12
sg6
I1380619680
sg4
S'ouverture des bureaux de vote \xc3\xa0 8h'
p1279
sg2
S'L\xe2\x80\x99ouverture du bureau de vote a eu lieu \xc3\xa0 8 h'
p1280
sg15
(dp1281
g17
F11.05
sg18
F14.15
ssg9
S'492'
p1282
sa(dp1283
g7
g12
sg6
I1380619680
sg4
S'ouverture des bureaux de vote \xc3\xa0 8h'
p1284
sg2
S'L\xe2\x80\x99ouverture du bureau de vote a eu lieu \xc3\xa0 8 h'
p1285
sg15
(dp1286
g17
F3.8842002
sg18
F11.5063368
ssg9
S'493'
p1287
sa(dp1288
g7
g12
sg6
I1380619680
sg4
S'ouverture des bureaux de vote \xc3\xa0 8h'
p1289
sg2
S'L\xe2\x80\x99ouverture du bureau de vote a eu lieu \xc3\xa0 8 h'
p1290
sg15
(dp1291
g17
F4.0714571
sg18
F9.681567399999999
ssg9
S'494'
p1292
sa(dp1293
g7
g12
sg6
I1380619680
sg4
S'ouverture des bureaux de vote \xc3\xa0 8h'
p1294
sg2
S'L\xe2\x80\x99ouverture du bureau de vote a eu lieu \xc3\xa0 8 h'
p1295
sg15
(dp1296
g17
F4.54861
sg18
F13.7261
ssg9
S'495'
p1297
sa(dp1298
g7
g12
sg6
I1380619680
sg4
S'Ouverture des Bureaux de vote \xc3\xa0 8h'
p1299
sg2
S'L\xe2\x80\x99ouverture du bureau de vote a eu lieu \xc3\xa0 8 h'
p1300
sg15
(dp1301
g17
F4.54861
sg18
F13.7261
ssg9
S'496'
p1302
sa(dp1303
g7
g12
sg6
I1380619680
sg4
S'Ouverture des Bureaux de vote \xc3\xa0 8h'
p1304
sg2
S'L\xe2\x80\x99ouverture du bureau de vote a eu lieu \xc3\xa0 8 h'
p1305
sg15
(dp1306
g17
F4.0595968
sg18
F9.6870459
ssg9
S'497'
p1307
sa(dp1308
g2
S'L\xe2\x80\x99ouverture du bureau de vote a eu lieu \xc3\xa0 8 h'
p1309
sg4
S'Ouverture des Bureaux de vote \xc3\xa0 8h'
p1310
sg6
I1380619680
sg7
g12
sg9
S'498'
p1311
sa(dp1312
g7
g12
sg6
I1380619680
sg4
S'Ouverture des Bureaux de vote \xc3\xa0 8h'
p1313
sg2
S'L\xe2\x80\x99ouverture du bureau de vote a eu lieu \xc3\xa0 8 h'
p1314
sg15
(dp1315
g17
F4.1682138
sg18
F10.0807298
ssg9
S'499'
p1316
sa(dp1317
g7
g12
sg6
I1380619680
sg4
S'Ouverture des Bureaux de vote \xc3\xa0 8h'
p1318
sg2
S"L'ouverture du bureau de vote a eu lieu \xc3\xa0 8h"
p1319
sg15
(dp1320
g17
F3.8334681
sg18
F11.5065747
ssg9
S'500'
p1321
sa(dp1322
g7
g8
sg6
I1380619680
sg4
S'ouverture des bureaux de vote \xc3\xa0 8h'
p1323
sg2
S"L'ouverture du bureau de vote n'a pas eu lieu \xc3\xa0 8h"
p1324
sg15
(dp1325
g17
F4.047486000000001
sg18
F9.706374
ssg9
S'504'
p1326
sa(dp1327
g7
g12
sg6
I1380619680
sg4
S'ouverture des bureaux de vote \xc3\xa0 8h'
p1328
sg2
S"L'ouverture du bureau de vote a eu lieu \xc3\xa0 8h"
p1329
sg15
(dp1330
g17
F4.2904513
sg18
F9.4144962
ssg9
S'505'
p1331
sa(dp1332
g7
g12
sg6
I1380619620
sg4
S'Ouverture des Bureaux de vote \xc3\xa0 8h'
p1333
sg2
S'L\xe2\x80\x99ouverture du bureau de vote a eu lieu \xc3\xa0 8 h'
p1334
sg15
(dp1335
g17
F10.6315589
sg18
F14.6587821
ssg9
S'364'
p1336
sa(dp1337
g7
g12
sg6
I1380619620
sg4
S'Ouverture des Bureaux de vote \xc3\xa0 8h'
p1338
sg2
S'L\xe2\x80\x99ouverture du bureau de vote a eu lieu \xc3\xa0 8 h'
p1339
sg15
(dp1340
g17
F10.6315589
sg18
F14.6587821
ssg9
S'362'
p1341
sa(dp1342
g7
g12
sg6
I1380619620
sg4
S'Ouverture des Bureaux de vote \xc3\xa0 8h'
p1343
sg2
S'L\xe2\x80\x99ouverture du bureau de vote a eu lieu \xc3\xa0 8 h'
p1344
sg15
(dp1345
g17
F3.5166667
sg18
F15.05
ssg9
S'363'
p1346
sa(dp1347
g7
g12
sg6
I1380619620
sg4
S'Ouverture des Bureaux de vote \xc3\xa0 8h'
p1348
sg2
S'L\xe2\x80\x99ouverture du bureau de vote a eu lieu \xc3\xa0 8 h'
p1349
sg15
(dp1350
g17
F3.9833333
sg18
F11.6
ssg9
S'365'
p1351
sa(dp1352
g7
g12
sg6
I1380619620
sg4
S'Ouverture des Bureaux de vote \xc3\xa0 8h'
p1353
sg2
S'L\xe2\x80\x99ouverture du bureau de vote a eu lieu \xc3\xa0 8 h'
p1354
sg15
(dp1355
g17
F4.275392399999999
sg18
F11.2665498
ssg9
S'366'
p1356
sa(dp1357
g2
S'L\xe2\x80\x99ouverture du bureau de vote a eu lieu \xc3\xa0 8 h'
p1358
sg4
S'ouverture des bureaux de vote \xc3\xa0 8h'
p1359
sg6
I1380619620
sg7
g12
sg9
S'367'
p1360
sa(dp1361
g2
S'L\xe2\x80\x99ouverture du bureau de vote a eu lieu \xc3\xa0 8 h'
p1362
sg4
S'Ouverture des Bureaux de vote \xc3\xa0 8h'
p1363
sg6
I1380619620
sg7
g12
sg9
S'368'
p1364
sa(dp1365
g2
S'L\xe2\x80\x99ouverture du bureau de vote a eu lieu \xc3\xa0 8 h'
p1366
sg4
S'Ouverture des Bureaux de vote \xc3\xa0 8h'
p1367
sg6
I1380619620
sg7
g12
sg9
S'369'
p1368
sa(dp1369
g2
S'L\xe2\x80\x99ouverture du bureau de vote a eu lieu \xc3\xa0 8 h'
p1370
sg4
S'Ouverture des Bureaux de vote \xc3\xa0 8h'
p1371
sg6
I1380619620
sg7
g12
sg9
S'370'
p1372
sa(dp1373
g7
g8
sg6
I1380619620
sg4
S'ouverture tardive des bureaux de vote'
p1374
sg2
S'L\xe2\x80\x99ouverture du bureau de vote n\xe2\x80\x99a pas eu lieu \xc3\xa0 8h'
p1375
sg15
(dp1376
g17
F4.047486000000001
sg18
F9.706374
ssg9
S'371'
p1377
sa(dp1378
g7
g12
sg6
I1380619620
sg4
S'Ouverture des Bureaux de vote \xc3\xa0 8h'
p1379
sg2
S'L\xe2\x80\x99ouverture du bureau de vote a eu lieu \xc3\xa0 8 h'
p1380
sg15
(dp1381
g17
F4.95604
sg18
F9.936546
ssg9
S'373'
p1382
sa(dp1383
g2
S'L\xe2\x80\x99ouverture du bureau de vote a eu lieu \xc3\xa0 8 h'
p1384
sg4
S'Ouverture des Bureaux de vote \xc3\xa0 8h'
p1385
sg6
I1380619620
sg7
g12
sg9
S'374'
p1386
sa(dp1387
g7
g12
sg6
I1380619620
sg4
S'Ouverture des Bureaux de vote \xc3\xa0 8h'
p1388
sg2
S'L\xe2\x80\x99ouverture du bureau de vote a eu lieu \xc3\xa0 8 h'
p1389
sg15
(dp1390
g17
F4.047486000000001
sg18
F9.706374
ssg9
S'375'
p1391
sa(dp1392
g7
g12
sg6
I1380619620
sg4
S'Ouverture des Bureaux de vote \xc3\xa0 8h'
p1393
sg2
S'L\xe2\x80\x99ouverture du bureau de vote a eu lieu \xc3\xa0 8 h'
p1394
sg15
(dp1395
g17
F3.7780892
sg18
F11.5293978
ssg9
S'378'
p1396
sa(dp1397
g7
g12
sg6
I1380619620
sg4
S'Ouverture des Bureaux de vote \xc3\xa0 8h'
p1398
sg2
S'L\xe2\x80\x99ouverture du bureau de vote a eu lieu \xc3\xa0 8 h'
p1399
sg15
(dp1400
g17
F4.047486000000001
sg18
F9.706374
ssg9
S'379'
p1401
sa(dp1402
g7
g8
sg6
I1380619620
sg4
S'Ouverture des Bureaux de vote \xc3\xa0 8h'
p1403
sg2
S'L\xe2\x80\x99ouverture du bureau de vote n\xe2\x80\x99a pas eu lieu \xc3\xa0 8h'
p1404
sg15
(dp1405
g17
F4.0262721
sg18
F9.727782
ssg9
S'380'
p1406
sa(dp1407
g2
S'L\xe2\x80\x99ouverture du bureau de vote a eu lieu \xc3\xa0 8 h'
p1408
sg4
S'Ouverture des Bureaux de vote \xc3\xa0 8h'
p1409
sg6
I1380619620
sg7
g12
sg9
S'381'
p1410
sa(dp1411
g7
g8
sg6
I1380619620
sg4
S'Ouverture tardive des Bureaux de vote'
p1412
sg2
S'L\xe2\x80\x99ouverture du bureau de vote n\xe2\x80\x99a pas eu lieu \xc3\xa0 8h'
p1413
sg15
(dp1414
g17
F4.047486000000001
sg18
F9.706374
ssg9
S'383'
p1415
sa(dp1416
g7
g8
sg6
I1380619620
sg4
S'Ouverture des Bureaux de vote \xc3\xa0 8h'
p1417
sg2
S'L\xe2\x80\x99ouverture du bureau de vote n\xe2\x80\x99a pas eu lieu \xc3\xa0 8h'
p1418
sg15
(dp1419
g17
F4.047486000000001
sg18
F9.706374
ssg9
S'384'
p1420
sa(dp1421
g7
g12
sg6
I1380619620
sg4
S'Ouverture des Bureaux de vote \xc3\xa0 8h'
p1422
sg2
S'L\xe2\x80\x99ouverture du bureau de vote a eu lieu \xc3\xa0 8 h'
p1423
sg15
(dp1424
g17
F4.0595968
sg18
F9.6870459
ssg9
S'385'
p1425
sa(dp1426
g7
g12
sg6
I1380619620
sg4
S'Ouverture des Bureaux de vote \xc3\xa0 8h'
p1427
sg2
S"L'ouverture du bureau de vote a eu lieu \xc3\xa0 8h"
p1428
sg15
(dp1429
g17
F5.958647
sg18
F10.14751
ssg9
S'386'
p1430
sa(dp1431
g7
g12
sg6
I1380619620
sg4
S'Ouverture des Bureaux de vote \xc3\xa0 8h'
p1432
sg2
S'L\xe2\x80\x99ouverture du bureau de vote a eu lieu \xc3\xa0 8 h'
p1433
sg15
(dp1434
g17
F4.047486000000001
sg18
F9.706374
ssg9
S'387'
p1435
sa(dp1436
g7
g12
sg6
I1380619620
sg4
S'Ouverture des Bureaux de vote \xc3\xa0 8h'
p1437
sg2
S'L\xe2\x80\x99ouverture du bureau de vote a eu lieu \xc3\xa0 8 h'
p1438
sg15
(dp1439
g17
F4.047486000000001
sg18
F9.706374
ssg9
S'388'
p1440
sa(dp1441
g7
g12
sg6
I1380619620
sg4
S'Ouverture des Bureaux de vote \xc3\xa0 8h'
p1442
sg2
S"L'ouverture du bureau de vote a eu lieu \xc3\xa0 8h"
p1443
sg15
(dp1444
g17
F4.4333333
sg18
F14.3666667
ssg9
S'389'
p1445
sa(dp1446
g7
g8
sg6
I1380619620
sg4
S'Ouverture tardive des Bureaux de vote'
p1447
sg2
S'L\xe2\x80\x99ouverture du bureau de vote n\xe2\x80\x99a pas eu lieu \xc3\xa0 8h'
p1448
sg15
(dp1449
g17
F4.047486000000001
sg18
F9.706374
ssg9
S'390'
p1450
sa(dp1451
g7
g12
sg6
I1380619620
sg4
S'Ouverture des Bureaux de vote \xc3\xa0 8h'
p1452
sg2
S'L\xe2\x80\x99ouverture du bureau de vote a eu lieu \xc3\xa0 8h'
p1453
sg15
(dp1454
g17
F4.4333333
sg18
F14.3666667
ssg9
S'391'
p1455
sa(dp1456
g7
g12
sg6
I1380619620
sg4
S'Ouverture des Bureaux de vote \xc3\xa0 8h'
p1457
sg2
S"L'ouverture du bureau de vote a eu lieu \xc3\xa0 8h"
p1458
sg15
(dp1459
g17
F2.9166667
sg18
F11.15
ssg9
S'392'
p1460
sa(dp1461
g7
g12
sg6
I1380619620
sg4
S'Ouverture des Bureaux de vote \xc3\xa0 8h'
p1462
sg2
S'L\xe2\x80\x99ouverture du bureau de vote a eu lieu \xc3\xa0 8h'
p1463
sg15
(dp1464
g17
F5.980118699999999
sg18
F10.3610179
ssg9
S'393'
p1465
sa(dp1466
g7
g12
sg6
I1380619620
sg4
S'Ouverture des Bureaux de vote \xc3\xa0 8h'
p1467
sg2
S'L\xe2\x80\x99ouverture du bureau de vote a eu lieu \xc3\xa0 8h'
p1468
sg15
(dp1469
g17
F4.0595968
sg18
F9.6870459
ssg9
S'394'
p1470
sa(dp1471
g7
g12
sg6
I1380619620
sg4
S'Ouverture des Bureaux de vote \xc3\xa0 8h'
p1472
sg2
S'L\xe2\x80\x99ouverture du bureau de vote a eu lieu \xc3\xa0 8 h'
p1473
sg15
(dp1474
g17
F5.958647
sg18
F10.14751
ssg9
S'395'
p1475
sa(dp1476
g7
g12
sg6
I1380619620
sg4
S'ouverture des bureaux de vote \xc3\xa0 8h'
p1477
sg2
S'L\xe2\x80\x99ouverture du bureau de vote a eu lieu \xc3\xa0 8 h'
p1478
sg15
(dp1479
g17
F4.0595968
sg18
F9.6870459
ssg9
S'396'
p1480
sa(dp1481
g7
g12
sg6
I1380619620
sg4
S'Ouverture des Bureaux de vote \xc3\xa0 8h'
p1482
sg2
S'L\xe2\x80\x99ouverture du bureau de vote a eu lieu \xc3\xa0 8 h'
p1483
sg15
(dp1484
g17
F4.047486000000001
sg18
F9.706374
ssg9
S'398'
p1485
sa(dp1486
g7
g12
sg6
I1380619620
sg4
S'ouverture des bureaux de vote \xc3\xa0 8h'
p1487
sg2
S'L\xe2\x80\x99ouverture du bureau de vote a eu lieu \xc3\xa0 8 h'
p1488
sg15
(dp1489
g17
F4.0595968
sg18
F9.6870459
ssg9
S'399'
p1490
sa(dp1491
g7
g12
sg6
I1380619620
sg4
S'Ouverture des Bureaux de vote \xc3\xa0 8h'
p1492
sg2
S'L\xe2\x80\x99ouverture du bureau de vote a eu lieu \xc3\xa0 8 h'
p1493
sg15
(dp1494
g17
F3.7681771
sg18
F11.5020752
ssg9
S'400'
p1495
sa(dp1496
g7
g12
sg6
I1380619620
sg4
S'Ouverture des Bureaux de vote \xc3\xa0 8h'
p1497
sg2
S'L\xe2\x80\x99ouverture du bureau de vote a eu lieu \xc3\xa0 8 h'
p1498
sg15
(dp1499
g17
F4.047486000000001
sg18
F9.706374
ssg9
S'401'
p1500
sa(dp1501
g7
g12
sg6
I1380619620
sg4
S'ouverture des bureaux de vote \xc3\xa0 8h'
p1502
sg2
S'L\xe2\x80\x99ouverture du bureau de vote a eu lieu \xc3\xa0 8 h'
p1503
sg15
(dp1504
g17
F2.9166667
sg18
F11.15
ssg9
S'403'
p1505
sa(dp1506
g7
g12
sg6
I1380619620
sg4
S'ouverture des bureaux de vote \xc3\xa0 8h'
p1507
sg2
S'L\xe2\x80\x99ouverture du bureau de vote a eu lieu \xc3\xa0 8 h'
p1508
sg15
(dp1509
g17
F4.600000000000001
sg18
F13.7333333
ssg9
S'405'
p1510
sa(dp1511
g7
g12
sg6
I1380619620
sg4
S'ouverture des bureaux de vote \xc3\xa0 8h'
p1512
sg2
S'L\xe2\x80\x99ouverture du bureau de vote a eu lieu \xc3\xa0 8 h'
p1513
sg15
(dp1514
g17
F5.485658
sg18
F10.41299
ssg9
S'457'
p1515
sa(dp1516
g7
g12
sg6
I1380619620
sg4
S'Ouverture des Bureaux de vote \xc3\xa0 8h'
p1517
sg2
S'L\xe2\x80\x99ouverture du bureau de vote a eu lieu \xc3\xa0 8 h'
p1518
sg15
(dp1519
g17
F5.485658
sg18
F10.41299
ssg9
S'458'
p1520
sa(dp1521
g2
S'L\xe2\x80\x99ouverture du bureau de vote a eu lieu \xc3\xa0 8 h'
p1522
sg4
S'Ouverture des Bureaux de vote \xc3\xa0 8h'
p1523
sg6
I1380619620
sg7
g12
sg9
S'462'
p1524
sa(dp1525
g7
g12
sg6
I1380619620
sg4
S'ouverture des bureaux de vote \xc3\xa0 8h'
p1526
sg2
S'L\xe2\x80\x99ouverture du bureau de vote a eu lieu \xc3\xa0 8 h'
p1527
sg15
(dp1528
g17
F3.8374034
sg18
F11.4855234
ssg9
S'465'
p1529
sa(dp1530
g2
S'L\xe2\x80\x99ouverture du bureau de vote a eu lieu \xc3\xa0 8 h'
p1531
sg4
S'Ouverture des Bureaux de vote \xc3\xa0 8h'
p1532
sg6
I1380619620
sg7
g12
sg9
S'467'
p1533
sa(dp1534
g7
g12
sg6
I1380619620
sg4
S'ouverture des bureaux de vote \xc3\xa0 8h'
p1535
sg2
S'L\xe2\x80\x99ouverture du bureau de vote a eu lieu \xc3\xa0 8 h'
p1536
sg15
(dp1537
g17
F5.980118699999999
sg18
F10.3610179
ssg9
S'470'
p1538
sa(dp1539
g7
g12
sg6
I1380619620
sg4
S'ouverture des bureaux de vote \xc3\xa0 8h'
p1540
sg2
S'L\xe2\x80\x99ouverture du bureau de vote a eu lieu \xc3\xa0 8 h'
p1541
sg15
(dp1542
g17
F4.95604
sg18
F9.936546
ssg9
S'471'
p1543
sa(dp1544
g7
g12
sg6
I1380619620
sg4
S'Ouverture des Bureaux de vote \xc3\xa0 8h'
p1545
sg2
S'L\xe2\x80\x99ouverture du bureau de vote a eu lieu \xc3\xa0 8 h'
p1546
sg15
(dp1547
g17
F3.9165148
sg18
F11.5266873
ssg9
S'472'
p1548
sa(dp1549
g7
g12
sg6
I1380619620
sg4
S'ouverture des bureaux de vote \xc3\xa0 8h'
p1550
sg2
S'L\xe2\x80\x99ouverture du bureau de vote a eu lieu \xc3\xa0 8 h'
p1551
sg15
(dp1552
g17
F10.3731732
sg18
F14.5655273
ssg9
S'474'
p1553
sa(dp1554
g7
g12
sg6
I1380619620
sg4
S'Ouverture des Bureaux de vote \xc3\xa0 8h'
p1555
sg2
S"L'ouverture du bureau de vote a eu lieu \xc3\xa0 8h"
p1556
sg15
(dp1557
g17
F5.485658
sg18
F10.41299
ssg9
S'476'
p1558
sa(dp1559
g2
S"L'ouverture du bureau de vote a eu lieu \xc3\xa0 8h"
p1560
sg4
S'ouverture des bureaux de vote \xc3\xa0 8h'
p1561
sg6
I1380619620
sg7
g12
sg9
S'478'
p1562
sa(dp1563
g7
g12
sg6
I1380619620
sg4
S'ouverture des bureaux de vote \xc3\xa0 8h'
p1564
sg2
S"L'ouverture du bureau de vote a eu lieu \xc3\xa0 8h"
p1565
sg15
(dp1566
g17
F3.549228
sg18
F11.02268
ssg9
S'480'
p1567
sa(dp1568
g7
g12
sg6
I1380619620
sg4
S'ouverture des bureaux de vote \xc3\xa0 8h'
p1569
sg2
S"L'ouverture du bureau de vote a eu lieu \xc3\xa0 8h"
p1570
sg15
(dp1571
g17
F3.549228
sg18
F11.02268
ssg9
S'481'
p1572
sa(dp1573
g7
g12
sg6
I1380619620
sg4
S'ouverture des bureaux de vote \xc3\xa0 8h'
p1574
sg2
S"L'ouverture du bureau de vote a eu lieu \xc3\xa0 8h"
p1575
sg15
(dp1576
g17
F2.6782994
sg18
F15.4068079
ssg9
S'482'
p1577
sa(dp1578
g7
g12
sg6
I1380619620
sg4
S'Ouverture des Bureaux de vote \xc3\xa0 8h'
p1579
sg2
S"L'ouverture du bureau de vote a eu lieu \xc3\xa0 8h"
p1580
sg15
(dp1581
g17
F4.0595968
sg18
F9.6870459
ssg9
S'483'
p1582
sa(dp1583
g7
g12
sg6
I1380619620
sg4
S'Ouverture des Bureaux de vote \xc3\xa0 8h'
p1584
sg2
S"L'ouverture du bureau de vote a eu lieu \xc3\xa0 8h"
p1585
sg15
(dp1586
g17
F4.0595968
sg18
F9.6870459
ssg9
S'484'
p1587
sa(dp1588
g7
g12
sg6
I1380619620
sg4
S'Ouverture des Bureaux de vote \xc3\xa0 8h'
p1589
sg2
S"L'ouverture du bureau de vote a eu lieu \xc3\xa0 8h"
p1590
sg15
(dp1591
g17
F4.575472
sg18
F13.68459
ssg9
S'485'
p1592
sa(dp1593
g7
g12
sg6
I1380619620
sg4
S'Ouverture des Bureaux de vote \xc3\xa0 8h'
p1594
sg2
S"L'ouverture du bureau de vote a eu lieu \xc3\xa0 8h"
p1595
sg15
(dp1596
g17
F5.485658
sg18
F10.41299
ssg9
S'506'
p1597
sa(dp1598
g7
g12
sg6
I1380619620
sg4
S'ouverture des bureaux de vote \xc3\xa0 8h'
p1599
sg2
S"L'ouverture du bureau de vote a eu lieu \xc3\xa0 8h"
p1600
sg15
(dp1601
g17
F5.8351175
sg18
F9.8878507
ssg9
S'507'
p1602
sa(dp1603
g7
g12
sg6
I1380619620
sg4
S'ouverture des bureaux de vote \xc3\xa0 8h'
p1604
sg2
S"L'ouverture du bureau de vote a eu lieu \xc3\xa0 8h"
p1605
sg15
(dp1606
g17
F4.0595968
sg18
F9.6870459
ssg9
S'508'
p1607
sa(dp1608
g7
g12
sg6
I1380619560
sg4
S'Ouverture des Bureaux de vote \xc3\xa0 8h'
p1609
sg2
S'L\xe2\x80\x99ouverture du bureau de vote a eu lieu \xc3\xa0 8 h'
p1610
sg15
(dp1611
g17
F3.8293683
sg18
F10.7337425
ssg9
S'414'
p1612
sa(dp1613
g2
S'L\xe2\x80\x99ouverture du bureau de vote a eu lieu \xc3\xa0 8 h'
p1614
sg4
S'ouverture des bureaux de vote \xc3\xa0 8h'
p1615
sg6
I1380619560
sg7
g12
sg9
S'415'
p1616
sa(dp1617
g7
g12
sg6
I1380619560
sg4
S'ouverture des bureaux de vote \xc3\xa0 8h'
p1618
sg2
S'L\xe2\x80\x99ouverture du bureau de vote a eu lieu \xc3\xa0 8 h'
p1619
sg15
(dp1620
g17
F3.8293683
sg18
F10.7337425
ssg9
S'416'
p1621
sa(dp1622
g7
g12
sg6
I1380619560
sg4
S'ouverture des bureaux de vote \xc3\xa0 8h'
p1623
sg2
S'L\xe2\x80\x99ouverture du bureau de vote a eu lieu \xc3\xa0 8 h'
p1624
sg15
(dp1625
g17
F4.047486000000001
sg18
F9.706374
ssg9
S'417'
p1626
sa(dp1627
g7
g12
sg6
I1380619560
sg4
S'Ouverture des Bureaux de vote \xc3\xa0 8h'
p1628
sg2
S'L\xe2\x80\x99ouverture du bureau de vote a eu lieu \xc3\xa0 8 h'
p1629
sg15
(dp1630
g17
F4.5580726
sg18
F9.6259546
ssg9
S'418'
p1631
sa(dp1632
g7
g12
sg6
I1380619560
sg4
S'Ouverture des Bureaux de vote \xc3\xa0 8h'
p1633
sg2
S'L\xe2\x80\x99ouverture du bureau de vote a eu lieu \xc3\xa0 8 h'
p1634
sg15
(dp1635
g17
F4.0595968
sg18
F9.6870459
ssg9
S'419'
p1636
sa(dp1637
g7
g12
sg6
I1380619560
sg4
S'Ouverture des Bureaux de vote \xc3\xa0 8h'
p1638
sg2
S'L\xe2\x80\x99ouverture du bureau de vote a eu lieu \xc3\xa0 8 h'
p1639
sg15
(dp1640
g17
F2.9166667
sg18
F11.15
ssg9
S'421'
p1641
sa(dp1642
g7
g12
sg6
I1380619560
sg4
S'Ouverture des Bureaux de vote \xc3\xa0 8h'
p1643
sg2
S'L\xe2\x80\x99ouverture du bureau de vote a eu lieu \xc3\xa0 8 h'
p1644
sg15
(dp1645
g17
F4.047486000000001
sg18
F9.706374
ssg9
S'422'
p1646
sa(dp1647
g7
g12
sg6
I1380619560
sg4
S'ouverture des bureaux de vote \xc3\xa0 8h'
p1648
sg2
S'L\xe2\x80\x99ouverture du bureau de vote a eu lieu \xc3\xa0 8h'
p1649
sg15
(dp1650
g17
F5.958647
sg18
F10.14751
ssg9
S'424'
p1651
sa(dp1652
g7
g12
sg6
I1380619560
sg4
S'Ouverture des Bureaux de vote \xc3\xa0 8h'
p1653
sg2
S'L\xe2\x80\x99ouverture du bureau de vote a eu lieu \xc3\xa0 8h'
p1654
sg15
(dp1655
g17
F4.0595968
sg18
F9.6870459
ssg9
S'426'
p1656
sa(dp1657
g7
g12
sg6
I1380619560
sg4
S'ouverture des bureaux de vote \xc3\xa0 8h'
p1658
sg2
S'L\xe2\x80\x99ouverture du bureau de vote a eu lieu \xc3\xa0 8h'
p1659
sg15
(dp1660
g17
F4.047486000000001
sg18
F9.706374
ssg9
S'429'
p1661
sa(dp1662
g7
g8
sg6
I1380619560
sg4
S'Ouverture des Bureaux de vote \xc3\xa0 8h'
p1663
sg2
S'L\xe2\x80\x99ouverture du bureau de vote n\xe2\x80\x99a pas eu lieu \xc3\xa0 8h'
p1664
sg15
(dp1665
g17
F4.047486000000001
sg18
F9.706374
ssg9
S'433'
p1666
sa(dp1667
g7
g12
sg6
I1380619560
sg4
S'Ouverture des Bureaux de vote \xc3\xa0 8h'
p1668
sg2
S'L\xe2\x80\x99ouverture du bureau de vote a eu lieu \xc3\xa0 8 h'
p1669
sg15
(dp1670
g17
F4.0809807
sg18
F9.7667921
ssg9
S'435'
p1671
sa(dp1672
g7
g12
sg6
I1380619560
sg4
S'Ouverture des Bureaux de vote \xc3\xa0 8h'
p1673
sg2
S'L\xe2\x80\x99ouverture du bureau de vote a eu lieu \xc3\xa0 8 h'
p1674
sg15
(dp1675
g17
F4.0809807
sg18
F9.7667921
ssg9
S'436'
p1676
sa(dp1677
g7
g12
sg6
I1380619560
sg4
S'Ouverture des Bureaux de vote \xc3\xa0 8h'
p1678
sg2
S'L\xe2\x80\x99ouverture du bureau de vote a eu lieu \xc3\xa0 8 h'
p1679
sg15
(dp1680
g17
F3.8637178
sg18
F11.5271196
ssg9
S'437'
p1681
sa(dp1682
g7
g8
sg6
I1380619560
sg4
S'Ouverture tardive des Bureaux de vote'
p1683
sg2
S'L\xe2\x80\x99ouverture du bureau de vote n\xe2\x80\x99a pas eu lieu \xc3\xa0 8h'
p1684
sg15
(dp1685
g17
F3.8374034
sg18
F11.4855234
ssg9
S'439'
p1686
sa(dp1687
g7
g12
sg6
I1380619560
sg4
S'ouverture des bureaux de vote \xc3\xa0 8h'
p1688
sg2
S"L'ouverture du bureau de vote a eu lieu \xc3\xa0 8h"
p1689
sg15
(dp1690
g17
F3.8619451
sg18
F11.4892917
ssg9
S'441'
p1691
sa(dp1692
g7
g12
sg6
I1380619560
sg4
S'ouverture des bureaux de vote \xc3\xa0 8h'
p1693
sg2
S'L\xe2\x80\x99ouverture du bureau de vote a eu lieu \xc3\xa0 8 h'
p1694
sg15
(dp1695
g17
F8.580901299999999
sg18
F13.914399
ssg9
S'442'
p1696
sa(dp1697
g7
g12
sg6
I1380619560
sg4
S'Ouverture des Bureaux de vote \xc3\xa0 8h'
p1698
sg2
S'L\xe2\x80\x99ouverture du bureau de vote a eu lieu \xc3\xa0 8 h'
p1699
sg15
(dp1700
g17
F4.0595968
sg18
F9.6870459
ssg9
S'445'
p1701
sa(dp1702
g7
g12
sg6
I1380619560
sg4
S'Ouverture des Bureaux de vote \xc3\xa0 8h'
p1703
sg2
S'L\xe2\x80\x99ouverture du bureau de vote a eu lieu \xc3\xa0 8 h'
p1704
sg15
(dp1705
g17
F7.3666667
sg18
F12.65
ssg9
S'446'
p1706
sa(dp1707
g7
g12
sg6
I1380619560
sg4
S'ouverture des bureaux de vote \xc3\xa0 8h'
p1708
sg2
S"L'ouverture du bureau de vote a eu lieu \xc3\xa0 8h"
p1709
sg15
(dp1710
g17
F4.575472
sg18
F13.68459
ssg9
S'452'
p1711
sa(dp1712
g2
S"L'ouverture du bureau de vote a eu lieu \xc3\xa0 8h"
p1713
sg4
S'ouverture des bureaux de vote \xc3\xa0 8h'
p1714
sg6
I1380619560
sg7
g12
sg9
S'453'
p1715
sa(dp1716
g7
g12
sg6
I1380619560
sg4
S'ouverture des bureaux de vote \xc3\xa0 8h'
p1717
sg2
S"L'ouverture du bureau de vote a eu lieu \xc3\xa0 8h"
p1718
sg15
(dp1719
g17
F6.0959616
sg18
F10.3048897
ssg9
S'454'
p1720
sa(dp1721
g7
g12
sg6
I1380619560
sg4
S'Ouverture des Bureaux de vote \xc3\xa0 8h'
p1722
sg2
S"L'ouverture du bureau de vote a eu lieu \xc3\xa0 8h"
p1723
sg15
(dp1724
g17
F4.0595968
sg18
F9.6870459
ssg9
S'456'
p1725
sa(dp1726
g7
g8
sg6
I1380619560
sg4
S'Ouverture tardive des Bureaux de vote'
p1727
sg2
S"L'ouverture du bureau de vote n'a pas eu lieu \xc3\xa0 8h"
p1728
sg15
(dp1729
g17
F4.047486000000001
sg18
F9.706374
ssg9
S'460'
p1730
sa(dp1731
g7
g12
sg6
I1380619560
sg4
S'Ouverture des Bureaux de vote \xc3\xa0 8h'
p1732
sg2
S'L\xe2\x80\x99ouverture du bureau de vote a eu lieu \xc3\xa0 8 h'
p1733
sg15
(dp1734
g17
F4.0595968
sg18
F9.6870459
ssg9
S'473'
p1735
sa(dp1736
g2
S'L\xe2\x80\x99ouverture du bureau de vote a eu lieu \xc3\xa0 8 h'
p1737
sg4
S'Ouverture des Bureaux de vote \xc3\xa0 8h'
p1738
sg6
I1380619560
sg7
g12
sg9
S'475'
p1739
sa(dp1740
g2
S'L\xe2\x80\x99ouverture du bureau de vote a eu lieu \xc3\xa0 8 h'
p1741
sg4
S'Ouverture des Bureaux de vote \xc3\xa0 8h'
p1742
sg6
I1380619560
sg7
g12
sg9
S'477'
p1743
sa(dp1744
g7
g12
sg6
I1380619560
sg4
S'Ouverture des Bureaux de vote \xc3\xa0 8h'
p1745
sg2
S'L\xe2\x80\x99ouverture du bureau de vote a eu lieu \xc3\xa0 8 h'
p1746
sg15
(dp1747
g17
F5.8351175
sg18
F9.8878507
ssg9
S'479'
p1748
sa(dp1749
g7
g8
sg6
I1380619020
sg4
S'Overture des Bureaux'
p1750
sg2
S"L\xe2\x80\x99ouverture du bureau de vote n'a pas  eu lieu \xc3\xa0 8h."
p1751
sg15
(dp1752
g17
F4.0595968
sg18
F9.6870459
ssg9
S'110'
p1753
sa(dp1754
g7
g12
sg6
I1380619020
sg4
S'Ouverture des Bureaux de vote \xc3\xa0 8h'
p1755
sg2
S"L'ouverture du bureau de vote a eu lieu \xc3\xa0 8h"
p1756
sg15
(dp1757
g17
F3.8374034
sg18
F11.4855234
ssg9
S'450'
p1758
sa(dp1759
g7
g12
sg6
I1380619020
sg4
S'ouverture des bureaux de vote \xc3\xa0 8h'
p1760
sg2
S"L'ouverture du bureau de vote a eu lieu \xc3\xa0 8h"
p1761
sg15
(dp1762
g17
F5.958647
sg18
F10.14751
ssg9
S'451'
p1763
sa(dp1764
g7
g12
sg6
I1380619020
sg4
S'Ouverture des Bureaux de vote \xc3\xa0 8h'
p1765
sg2
S"L'ouverture du bureau de vote a eu lieu \xc3\xa0 8h"
p1766
sg15
(dp1767
g17
F11.1615368
sg18
F14.0144902
ssg9
S'455'
p1768
sa(dp1769
g7
g8
sg6
I1380619020
sg4
S'Ouverture tardive des Bureaux de vote'
p1770
sg2
S"L'ouverture du bureau de vote n'a pas eu lieu \xc3\xa0 8h"
p1771
sg15
(dp1772
g17
F4.0595968
sg18
F9.6870459
ssg9
S'459'
p1773
sa(dp1774
g2
S"L'ouverture du bureau de vote a eu lieu \xc3\xa0 8h"
p1775
sg4
S'Ouverture des Bureaux de vote \xc3\xa0 8h'
p1776
sg6
I1380618960
sg7
g12
sg9
S'397'
p1777
sa(dp1778
g7
g12
sg6
I1380618960
sg4
S'Ouverture des Bureaux de vote \xc3\xa0 8h'
p1779
sg2
S"L'ouverture du bureau de vote a eu lieu \xc3\xa0 8h"
p1780
sg15
(dp1781
g17
F2.9333333
sg18
F11.9833333
ssg9
S'402'
p1782
sa(dp1783
g7
g8
sg6
I1380618960
sg4
S'Ouverture des Bureaux de vote \xc3\xa0 8h'
p1784
sg2
S"L'ouverture du bureau de vote n'a pas eu lieu \xc3\xa0 8h"
p1785
sg15
(dp1786
g17
F4.047486000000001
sg18
F9.706374
ssg9
S'404'
p1787
sa(dp1788
g2
S"L'ouverture du bureau de vote a eu lieu \xc3\xa0 8h"
p1789
sg4
S'ouverture des bureaux de vote \xc3\xa0 8h'
p1790
sg6
I1380618960
sg7
g12
sg9
S'406'
p1791
sa(dp1792
g7
g12
sg6
I1380618960
sg4
S'ouverture des bureaux de vote \xc3\xa0 8h'
p1793
sg2
S"L'ouverture du bureau de vote a eu lieu \xc3\xa0 8h"
p1794
sg15
(dp1795
g17
F3.6420296
sg18
F11.5319098
ssg9
S'407'
p1796
sa(dp1797
g7
g12
sg6
I1380618960
sg4
S'ouverture des bureaux de vote \xc3\xa0 8h'
p1798
sg2
S"L'ouverture du bureau de vote a eu lieu \xc3\xa0 8h"
p1799
sg15
(dp1800
g17
F3.8813882
sg18
F11.529068
ssg9
S'408'
p1801
sa(dp1802
g7
g12
sg6
I1380618960
sg4
S'ouverture des bureaux de vote \xc3\xa0 8h'
p1803
sg2
S"L'ouverture du bureau de vote a eu lieu \xc3\xa0 8h"
p1804
sg15
(dp1805
g17
F4.600000000000001
sg18
F13.7333333
ssg9
S'409'
p1806
sa(dp1807
g7
g12
sg6
I1380618960
sg4
S'Ouverture des Bureaux de vote \xc3\xa0 8h'
p1808
sg2
S"L'ouverture du bureau de vote a eu lieu \xc3\xa0 8h"
p1809
sg15
(dp1810
g17
F4.633333299999999
sg18
F9.45
ssg9
S'410'
p1811
sa(dp1812
g7
g12
sg6
I1380618960
sg4
S'Ouverture des Bureaux de vote \xc3\xa0 8h'
p1813
sg2
S"L'ouverture du bureau de vote a eu lieu \xc3\xa0 8h"
p1814
sg15
(dp1815
g17
F2.9333333
sg18
F11.9833333
ssg9
S'411'
p1816
sa(dp1817
g7
g12
sg6
I1380618960
sg4
S'Ouverture des Bureaux de vote \xc3\xa0 8h'
p1818
sg2
S"L'ouverture du bureau de vote a eu lieu \xc3\xa0 8h"
p1819
sg15
(dp1820
g17
F4.047486000000001
sg18
F9.706374
ssg9
S'412'
p1821
sa(dp1822
g7
g12
sg6
I1380618960
sg4
S'ouverture des bureaux de vote \xc3\xa0 8h'
p1823
sg2
S"L'ouverture du bureau de vote a eu lieu \xc3\xa0 8h"
p1824
sg15
(dp1825
g17
F3.6799
sg18
F12.99741
ssg9
S'413'
p1826
sa(dp1827
g7
g12
sg6
I1380618960
sg4
S'Ouverture des Bureaux de vote \xc3\xa0 8h'
p1828
sg2
S"L'ouverture du bureau de vote a eu lieu \xc3\xa0 8h"
p1829
sg15
(dp1830
g17
F4.078651
sg18
F9.671605
ssg9
S'420'
p1831
sa(dp1832
g7
g12
sg6
I1380618960
sg4
S'Ouverture des Bureaux de vote \xc3\xa0 8h'
p1833
sg2
S"L'ouverture du bureau de vote a eu lieu \xc3\xa0 8h"
p1834
sg15
(dp1835
g17
F3.8791827
sg18
F11.5335204
ssg9
S'423'
p1836
sa(dp1837
g7
g12
sg6
I1380618960
sg4
S'Ouverture des Bureaux de vote \xc3\xa0 8h'
p1838
sg2
S"L'ouverture du bureau de vote a eu lieu \xc3\xa0 8h"
p1839
sg15
(dp1840
g17
F5.45
sg18
F10.0666667
ssg9
S'425'
p1841
sa(dp1842
g7
g12
sg6
I1380618960
sg4
S'Ouverture des Bureaux de vote \xc3\xa0 8h'
p1843
sg2
S"L'ouverture du bureau de vote a eu lieu \xc3\xa0 8h"
p1844
sg15
(dp1845
g17
F3.8791827
sg18
F11.5335204
ssg9
S'427'
p1846
sa(dp1847
g7
g12
sg6
I1380618960
sg4
S'ouverture des bureaux de vote \xc3\xa0 8h'
p1848
sg2
S"L'ouverture du bureau de vote a eu lieu \xc3\xa0 8h"
p1849
sg15
(dp1850
g17
F4.0595968
sg18
F9.6870459
ssg9
S'428'
p1851
sa(dp1852
g7
g12
sg6
I1380618960
sg4
S'Ouverture des Bureaux de vote \xc3\xa0 8h'
p1853
sg2
S"L'ouverture du bureau de vote a eu lieu \xc3\xa0 8h"
p1854
sg15
(dp1855
g17
F4.0595968
sg18
F9.6870459
ssg9
S'430'
p1856
sa(dp1857
g2
S"L'ouverture du bureau de vote a eu lieu \xc3\xa0 8h"
p1858
sg4
S'Ouverture des Bureaux de vote \xc3\xa0 8h'
p1859
sg6
I1380618960
sg7
g12
sg9
S'431'
p1860
sa(dp1861
g2
S"L'ouverture du bureau de vote a eu lieu \xc3\xa0 8h"
p1862
sg4
S'ouverture des bureaux de vote \xc3\xa0 8h'
p1863
sg6
I1380618960
sg7
g12
sg9
S'432'
p1864
sa(dp1865
g7
g12
sg6
I1380618960
sg4
S'Ouverture des Bureaux de vote \xc3\xa0 8h'
p1866
sg2
S"L'ouverture du bureau de vote a eu lieu \xc3\xa0 8h"
p1867
sg15
(dp1868
g17
F4.0595968
sg18
F9.6870459
ssg9
S'434'
p1869
sa(dp1870
g7
g12
sg6
I1380618960
sg4
S'Ouverture des Bureaux de vote \xc3\xa0 8h'
p1871
sg2
S"L'ouverture du bureau de vote a eu lieu \xc3\xa0 8h"
p1872
sg15
(dp1873
g17
F4.633333299999999
sg18
F9.45
ssg9
S'438'
p1874
sa(dp1875
g7
g12
sg6
I1380618960
sg4
S'Ouverture des Bureaux de vote \xc3\xa0 8h'
p1876
sg2
S"L'ouverture du bureau de vote a eu lieu \xc3\xa0 8h"
p1877
sg15
(dp1878
g17
F4.0595968
sg18
F9.6870459
ssg9
S'440'
p1879
sa(dp1880
g7
g12
sg6
I1380618960
sg4
S'Ouverture des Bureaux de vote \xc3\xa0 8h'
p1881
sg2
S"L'ouverture du bureau de vote a eu lieu \xc3\xa0 8h"
p1882
sg15
(dp1883
g17
F4.575472
sg18
F13.68459
ssg9
S'443'
p1884
sa(dp1885
g2
S"L'ouverture du bureau de vote a eu lieu \xc3\xa0 8h"
p1886
sg4
S'Ouverture des Bureaux de vote \xc3\xa0 8h'
p1887
sg6
I1380618960
sg7
g12
sg9
S'444'
p1888
sa(dp1889
g7
g12
sg6
I1380618960
sg4
S'Ouverture des Bureaux de vote \xc3\xa0 8h'
p1890
sg2
S"L'ouverture du bureau de vote a eu lieu \xc3\xa0 8h"
p1891
sg15
(dp1892
g17
F3.966666999999999
sg18
F11.933333
ssg9
S'447'
p1893
sa(dp1894
g7
g12
sg6
I1380618960
sg4
S'Ouverture des Bureaux de vote \xc3\xa0 8h'
p1895
sg2
S"L'ouverture du bureau de vote a eu lieu \xc3\xa0 8h"
p1896
sg15
(dp1897
g17
F8.580901299999999
sg18
F13.914399
ssg9
S'448'
p1898
sa(dp1899
g7
g12
sg6
I1380618960
sg4
S'Ouverture des Bureaux de vote \xc3\xa0 8h'
p1900
sg2
S"L'ouverture du bureau de vote a eu lieu \xc3\xa0 8h"
p1901
sg15
(dp1902
g17
F4.8839199
sg18
F10.7943639
ssg9
S'449'
p1903
sa(dp1904
g7
g8
sg6
I1380618960
sg4
S'Ouverture tardive des Bureaux de vote'
p1905
sg2
S"L'ouverture du bureau de vote n'a pas eu lieu \xc3\xa0 8h"
p1906
sg15
(dp1907
g17
F4.047486000000001
sg18
F9.706374
ssg9
S'461'
p1908
sa(dp1909
g7
g8
sg6
I1380618960
sg4
S'Ouverture tardive des Bureaux de vote'
p1910
sg2
S"L'ouverture du bureau de vote n'a pas eu lieu \xc3\xa0 8h"
p1911
sg15
(dp1912
g17
F4.047486000000001
sg18
F9.706374
ssg9
S'463'
p1913
sa(dp1914
g2
S"L'ouverture du bureau de vote n'a pas eu lieu \xc3\xa0 8h"
p1915
sg4
S'Ouverture tardive des Bureaux de vote'
p1916
sg6
I1380618960
sg7
g8
sg9
S'464'
p1917
sa(dp1918
g7
g8
sg6
I1380618960
sg4
S'Ouverture tardive des Bureaux de vote'
p1919
sg2
S"L'ouverture du bureau de vote n'a pas eu lieu \xc3\xa0 8h"
p1920
sg15
(dp1921
g17
F4.047486000000001
sg18
F9.706374
ssg9
S'466'
p1922
sa(dp1923
g2
S"L'ouverture du bureau de vote n'a pas eu lieu \xc3\xa0 8h"
p1924
sg4
S'Ouverture tardive des Bureaux de vote'
p1925
sg6
I1380618960
sg7
g8
sg9
S'468'
p1926
sa(dp1927
g7
g8
sg6
I1380618960
sg4
S'Ouverture tardive des Bureaux de vote'
p1928
sg2
S"L'ouverture du bureau de vote n'a pas eu lieu \xc3\xa0 8h"
p1929
sg15
(dp1930
g17
F3.8637178
sg18
F11.5271196
ssg9
S'469'
p1931
sa(dp1932
g7
g8
sg6
I1380564060
sg4
S'Debut tardif du vote \xc3\xa0 Kamkop'
p1933
sg2
S"A la Mission Catholique de Kamkop, depuis 08h30 les \xc3\xa9lecteurs n'ont pas encore vot\xc3\xa9 a Bafoussam. Une  centaine de votants attendent devant les bureaux ouverts."
p1934
sg15
(dp1935
g17
F5.485658
sg18
F10.41299
ssg9
S'104'
p1936
sa(dp1937
g7
g8
sg6
I1380563040
sg4
S'A Douala5 le Rdpc cache  les bulletins du Sdf pendant 1 heure.'
p1938
sg2
S'A Douala5 le Rdpc cache  les bulletins du Sdf pendant 1 heure.'
p1939
sg15
(dp1940
g17
F4.047486000000001
sg18
F9.706374
ssg9
S'99'
p1941
sa(dp1942
g7
g8
sg6
I1380563040
sg4
S'D\xc3\xa9lestage au lyc\xc3\xa9e de Brazaville \xc3\xa0 Douala'
p1943
sg2
S'COUPURE ELECTRIQUE DANS  TOUT LE LYCEE DE BRAZZAVILLE \xc3\xa0 DOUALA DEPUIS 18H30 LORS DU DEPOUILLEMENT.'
p1944
sg15
(dp1945
g17
F4.0262721
sg18
F9.727782
ssg9
S'100'
p1946
sa(dp1947
g7
g733
sg6
I1380563040
sg4
S"Absence d'encre ind\xc3\xa9l\xc3\xa9bile \xc3\xa0 Mendong"
p1948
sg2
S"A l'\xc3\xa9cole Opera semance au quartier Mendong \xc3\xa0 Yaound\xc3\xa9. L'encre n'\xc3\xa9tait pas ind\xc3\xa9l\xc3\xa9bile :"
p1949
sg15
(dp1950
g17
F3.866666699999999
sg18
F11.5166667
ssg9
S'102'
p1951
sa(dp1952
g7
g8
sg6
I1380562680
sg4
S'Corruption des \xc3\xa9lecteurs \xc3\xa0 Bafoussam 3'
p1953
sg2
S"Des promesses d'argent ont \xc3\xa9t\xc3\xa9 faites aux \xc3\xa9lecteurs de Bafoussam 3 d\xe2\x80\x99o\xc3\xb9 leur engouement \xc3\xa0 aller voter."
p1954
sg15
(dp1955
g17
F5.485658
sg18
F10.41299
ssg9
S'98'
p1956
sa(dp1957
g7
g733
sg6
I1380561000
sg4
S'Incoh\xc3\xa9rence des listes au bureau de vote de Kamkop'
p1958
sg2
S'Au Centre catholique Kamkop  dans le bureau de vote  B, l\xe2\x80\x99\xc3\xa9lecteur num\xc3\xa9ro 185 un homme, ne retrouve pas son nom sur la liste car ce num\xc3\xa9ro a \xc3\xa9t\xc3\xa9 attribu\xc3\xa9 a une femme.'
p1959
sg15
(dp1960
g17
F7.369721999999999
sg18
F12.354722
ssg9
S'94'
p1961
sa(dp1962
g7
g8
sg6
I1380561000
sg4
S'confusion des noms des electeurs \xc3\xa0 pitoa'
p1963
sg2
S"confusion des noms des \xc3\xa9lecteurs dans un bureau de vote a Pitoa. Un \xc3\xa9lecteur a vot\xc3\xa9 au nom d'un autre."
p1964
sg15
(dp1965
g17
F9.3860529
sg18
F13.5060994
ssg9
S'95'
p1966
sa(dp1967
g7
g733
sg6
I1380561000
sg4
S'Not good light during counting'
p1968
sg2
S'in buea   at Bakweri town OIC, there is  no good light during the counting..that result at the pole will not be proper taken to elecam office and that can bring problems'
p1969
sg15
(dp1970
g17
F4.155169
sg18
F9.231387999999999
ssg9
S'96'
p1971
sa(dp1972
g2
S"Au centre de  l'\xc3\xa9cole des postes et \xc3\xa0  EHS, l'encre n'est pas tout a fait ind\xc3\xa9l\xc3\xa9bile..."
p1973
sg4
S"Absence d'encre ind\xc3\xa9l\xc3\xa9bile \xc3\xa0 l'\xc3\xa9cole de poste"
p1974
sg6
I1380561000
sg7
g733
sg9
S'103'
p1975
sa(dp1976
g7
g8
sg6
I1380560160
sg4
S"Intervention des forces de l'ordre \xc3\xa0 l'\xc3\xa9cole maternelle Ndogbele I"
p1977
sg2
S"A Yabassiles forces de l'ordre ont intervenu \xc3\xa0 l'\xc3\xa9cole maternelle de Ndogbele afin d'\xc3\xa9viter l'afluence des populations aupr\xc3\xa8s des bureaux de vote lors du d\xc3\xa9pouillement."
p1978
sg15
(dp1979
g17
F4.492629
sg18
F9.967466
ssg9
S'93'
p1980
sa(dp1981
g7
g733
sg6
I1380557040
sg4
S'Intimidation des membres du SDF et MRC \xc3\xa0 Bafoussam'
p1982
sg2
S"Au bureau de vote du centre de sant\xc3\xa9 de NJINGAH \xc3\xa0 Bafoussam 1er, dans le d\xc3\xa9partement de la MIFI r\xc3\xa9gion de l'Ouest, les repr\xc3\xa9sentants du SDF et MRC ont \xc3\xa9t\xc3\xa9 emp\xc3\xaach\xc3\xa9s de voter."
p1983
sg15
(dp1984
g17
F5.4620345
sg18
F10.464947
ssg9
S'92'
p1985
sa(dp1986
g7
g733
sg6
I1380556440
sg4
S"Manipulation des listes au niveau des bureaux de vote de l'\xc3\xa9cole martin luther king \xc3\xa0 Douala"
p1987
sg2
S"Au centre de vote  de l'\xc3\xa9cole martin lutherking, \xc3\xa0 Douala 5. Il y'a eu 8 bureaux de vote au lieu de 6. Les modifications ont \xc3\xa9t\xc3\xa9 faites  au niveau des listes des \xc3\xa9lecteurs inscrits."
p1988
sg15
(dp1989
g17
F4.047486000000001
sg18
F9.706374
ssg9
S'89'
p1990
sa(dp1991
g7
g8
sg6
I1380555420
sg4
S'Irr\xc3\xa9gularit\xc3\xa9 \xc3\xa0 un bureau de vote  du centre 2 \xc3\xa0 Etoug ebe'
p1992
sg2
S"Au centre 2 vote du  lyc\xc3\xa9e bilingue  d'etoug ebe, un \xc3\xa9lecteur n'a pas pu signer parce qu'on  avait  deja sign\xc3\xa9 \xc3\xa0 la place qui  lui \xc3\xa9tait reserv\xc3\xa9e dans la liste d'\xc3\xa9margement..."
p1993
sg15
(dp1994
g17
F3.833333
sg18
F11.466667
ssg9
S'87'
p1995
sa(dp1996
g7
g733
sg6
I1380555300
sg4
S'Incoh\xc3\xa9rence des bulletins de vote au bureau A du  logone et Chari'
p1997
sg2
S'Les bulletins de vote du RDPC,pour les l\xc3\xa9gislatives,au  bureau de Vote No A, \xc3\xa9cole Protestante \xc3\xa0 Ngaound\xc3\xa9r\xc3\xa9, sont ceux de la circonscription du Logone et Chari (Extreme-Nord).'
p1998
sg15
(dp1999
g17
F11.8575027
sg18
F14.8454619
ssg9
S'88'
p2000
sa(dp2001
g7
g733
sg6
I1380550860
sg4
S"Absence de bulletin de vote de l'UNDP au Mayo Louti"
p2002
sg2
S"A DOUROUM, DANS LE MAYO LOUTI,les bulletins de vote de l'UNDP sont inexistants."
p2003
sg15
(dp2004
g17
F9.9272698
sg18
F13.7752634
ssg9
S'84'
p2005
sa(dp2006
g7
g8
sg6
I1380548400
sg4
S'Incoh\xc3\xa9rence des listes au bureau de vote de Ndogt\xc3\xa9l\xc3\xa9'
p2007
sg2
S"Ndogt\xc3\xa9l\xc3\xa9 IA Yabassi,des individus  ont des cartes d'\xc3\xa9lecteur mais leurs noms ne figurent pas sur la liste du bureau de vote."
p2008
sg15
(dp2009
g17
F4.492629
sg18
F9.967466
ssg9
S'83'
p2010
sa(dp2011
g7
g733
sg6
I1380547560
sg4
S'r\xc3\xa9sultats provisoire citoyen'
p2012
sg2
S'lyc\xc3\xa9e mendong yaoude, bureau A\ninscrits 386\nLegislatives\nvotants 296\nnul 7\nUPC 15\nMRC 134\nRDPC 140\nMunicipales\nnul 13\nRDPC 154\nSDF 82\nUFC 26\nUNDP 20'
p2013
sg15
(dp2014
g17
F3.8321407
sg18
F11.4644909
ssg9
S'109'
p2015
sa(dp2016
g7
g8
sg6
I1380544140
sg4
S'Vote illicite au bureau de la base a\xc3\xa9rienne de Douala'
p2017
sg2
S'Au bureau de vote de la base a\xc3\xa9rienne de Douala, le Pr\xc3\xa9sident a fait voter les militaires sur une feuille vierge avant l\xe2\x80\x99arriv\xc3\xa9e du mat\xc3\xa9riel \xc3\xa9lectoral.'
p2018
sg15
(dp2019
g17
F4.047486000000001
sg18
F9.706374
ssg9
S'77'
p2020
sa(dp2021
g7
g733
sg6
I1380541860
sg4
S'Intimidation des electeurs \xc3\xa0 Ebebda'
p2022
sg2
S"Le Chef De Nkog Edjen (arrondissement d'Ebebda d\xc3\xa9partement de la l\xc3\xa9ki\xc3\xa9) Fouille Les isoloirs (les sacs \xc3\xa0 rebus pour v\xc3\xa9rifier les bulletins non choisis) Pour Intimider Les \xc3\xa9lecteurs."
p2023
sg15
(dp2024
g17
F4.3394663
sg18
F11.2821398
ssg9
S'73'
p2025
sa(dp2026
g7
g733
sg6
I1380538320
sg4
S'Corruption des \xc3\xa9lecteurs \xc3\xa0 Ngangue(DoualaII)'
p2027
sg2
S'Un haut cadre du rdpc partage les aubergines aux \xc3\xa9lecteurs \xc3\xa0 Ngangue (Douala 2).'
p2028
sg15
(dp2029
g17
F4.047486000000001
sg18
F9.706374
ssg9
S'67'
p2030
sa(dp2031
g7
g8
sg6
I1380537840
sg4
S'Non respect des normes \xc3\xa9lectorales \xc3\xa0 Logbaba, Douala'
p2032
sg2
S"Les membres de la commission n'ont pas permis aux repr\xc3\xa9sentants des partis politiques de v\xc3\xa9rifier que l'urne \xc3\xa9tait effectivement vide avant d'\xc3\xaatre sc\xc3\xa9ll\xc3\xa9."
p2033
sg15
(dp2034
g17
F4.047486000000001
sg18
F9.706374
ssg9
S'64'
p2035
sa(dp2036
g7
g733
sg6
I1380537600
sg4
S"Intimidation des electeurs par les membres d'elecam \xc3\xa0"
p2037
sg2
S'A HANGAR BLAMA DJELING (TOKOMBERE) A ET B, on indique le bulletin blanc(RDPC) aux \xc3\xa9lecteurs et on accompagne les personnes \xc3\xa2g\xc3\xa9es et illettr\xc3\xa9es aux isoloirs.'
p2038
sg15
(dp2039
g17
F10.8666667
sg18
F14.15
ssg9
S'63'
p2040
sa(dp2041
g7
g733
sg6
I1380537060
sg4
S"Absence de bulletin de vote \xc3\xa0 l'\xc3\xa9cole des infirmiers \xc3\xa0 Maroua"
p2042
sg2
S"A l'ecole des infirmiers de Maroua, les bulletins de vote sont inexistants."
p2043
sg15
(dp2044
g17
F10.5823219
sg18
F14.327545
ssg9
S'61'
p2045
sa(dp2046
g7
g8
sg6
I1380537060
sg4
S'Incident au Bureau de vote de Dogbon C'
p2047
sg2
S"Dans le bureau de vote de l'Ep Dogbon, un candidat \xc3\xa0 d\xc3\xa9truit les urnes car le vote n'a pas \xc3\xa9t\xc3\xa9 suspendu apr\xc3\xa8s qu'il ait signal\xc3\xa9 une irr\xc3\xa9gularit\xc3\xa9: L'absence de son bulletin de vote."
p2048
sg15
(dp2049
g17
F4.0008954
sg18
F10.0086995
ssg9
S'60'
p2050
sa(dp2051
g2
S"Au bureau de vote de FOYE DOMAYO, les membres d'Elecam emp\xc3\xaachent aux \xc3\xa9lecteurs d'exprimer librement leur choix."
p2052
sg4
S"Intimidation des electeurs par les membres d'elecam \xc3\xa0 FOYE DOMAYO"
p2053
sg6
I1380534960
sg7
g8
sg9
S'56'
p2054
sa(dp2055
g7
g733
sg6
I1380528000
sg4
S'Ouverture tardive du bureau de vote de Douala II'
p2056
sg2
S"Un observateur anonyme d\xc3\xa9nonce l'ouverture tardive des bureaux de vote de la circonscription de Douala II."
p2057
sg15
(dp2058
g17
F4.047486000000001
sg18
F9.706374
ssg9
S'51'
p2059
sa(dp2060
g7
g8
sg6
I1380527340
sg4
S'ACCES REFUSE AUX OBSERVATEURS  DU BUREAU DE VOTE DE NDELELE'
p2061
sg2
S'Nous ne sommes pas autoris\xc3\xa9s \xc3\xa0 acc\xc3\xa9der dans les bureaux de vote de ndelele \xc3\xa0 la boumba et ngoko. Alors que nous avons nos accr\xc3\xa9ditations.'
p2062
sg15
(dp2063
g17
F4.039268
sg18
F14.92523
ssg9
S'34'
p2064
sa(dp2065
g2
S"Observatrice NANKEU MEKONTSO Priscille \xc3\xa0 Ecole Populaire Yonyong K. Je n'ai toujours pas mon kit d'observation \xc3\xa0 savoir ma fiche. Merci de r\xc3\xa9soudre ce probl\xc3\xa8me."
p2066
sg4
S'Observatrice Sans Fiche'
p2067
sg6
I1380526680
sg7
g733
sg9
S'33'
p2068
sa(dp2069
g7
g733
sg6
I1380526260
sg4
S'Ecole NKONMONDO ouverte'
p2070
sg2
S'DOUALA 1, UNE \xc3\x89COLE MTERNEL (NKONMONDO) OUVERTE \xc3\x80 COT\xc3\x89 DU CENTRE DE VOTE E.P NKOMONDO'
p2071
sg15
(dp2072
g17
F4.047486000000001
sg18
F9.706374
ssg9
S'35'
p2073
sa(dp2074
g7
g733
sg6
I1380499200
sg4
S"Fraude d'un \xc3\xa9lecteur au bureau de vote C au quartier Bonassama dans la ville de Douala Douala"
p2075
sg2
S"Au bureau de vote C au quartier bonassama dans la ville de Douala, un electeur a vot\xc3\xa9 dans l'urne. Et le m\xc3\xaame \xc3\xa9lecteur a \xc3\xa9galement \xc3\xa9marg\xc3\xa9 devant le nom d'un autre \xc3\xa9lecteur."
p2076
sg15
(dp2077
g17
F4.0741228
sg18
F9.684956699999999
ssg9
S'69'
p2078
sa(dp2079
g7
g733
sg6
I1380499200
sg4
S'Corruption des \xc3\xa9lecteurs \xc3\xa0 Bafoussam 1 par un candidat du RDPC'
p2080
sg2
S"Un homme bat campagne \xc3\xa0 Bafoussam. Plus pr\xc3\xa9cis\xc3\xa9ment, il influence le vote des \xc3\xa9lecteurs en faveur d'un parti."
p2081
sg15
(dp2082
g17
F5.485658
sg18
F10.41299
ssg9
S'49'
p2083
sa(dp2084
g7
g733
sg6
I1380585600
sg4
S'Campagne dans le bureau de vote \xc3\xa0 Melen, Yaound\xc3\xa9 6. \xc3\xa9cole holly, bureau C'
p2085
sg2
S"Un membre d'un parti politique a demand\xc3\xa9 a une maman qui allait voter de choisir son bulletin. Ceci s'est pass\xc3\xa9 \xc3\xa0 Melen, Yaound\xc3\xa9 6. \xc3\xa9cole holly, bureau C"
p2086
sg15
(dp2087
g17
F3.866786399999999
sg18
F11.5006548
ssg9
S'71'
p2088
sa(dp2089
g7
g12
sg6
I1380585600
sg4
S'Ev\xc3\xa8nements positifs au quartier b\xc3\xa9panda, Douala'
p2090
sg2
S"Ev\xc3\xa8nements positifs \xc3\xa0 Douala, Bepanda,\n- Confusion des urnes par 1electeur et extraction du bulletin de l'urne par la comission avec l' accord des partis politiques pr\xc3\xa9sents. \n- Absence du nom d'un electeur sur toutes les listes d'emargement et implication du responsable ELECAM du bureau de vote."
p2091
sg15
(dp2092
g17
F4.0540835
sg18
F9.7260542
ssg9
S'72'
p2093
sa(dp2094
g7
g733
sg6
I1380585600
sg4
S'D\xc3\xa9sordre dans le bureau de vote n\xc2\xb033 dans la commune de Yaound\xc3\xa9 2'
p2095
sg2
S'Il y a du grand d\xc3\xa9sordre dans le bureau de vote n\xc2\xb033 de la commune de Yaound\xc3\xa9 2.'
p2096
sg15
(dp2097
g17
F3.866666699999999
sg18
F11.5166667
ssg9
S'50'
p2098
sa(dp2099
g7
g8
sg6
I1380585600
sg4
S'Les \xc3\xa9lecteurs qui votent plusieurs fois  \xc3\xa0 New Deido Douala'
p2100
sg2
S'Ecole Publique de  new deido des electeurs  votent au  nom des autres et ceux qui votent  avec 2 identit\xc3\xa9s dans le  Bureau E.'
p2101
sg15
(dp2102
g17
F4.0605043
sg18
F9.7163004
ssg9
S'85'
p2103
sa(dp2104
g7
g733
sg6
I1380585600
sg4
S'Ev\xc3\xa8nement positif \xc3\xa0 Yabassi'
p2105
sg2
S'Les op\xc3\xa9rations jusque-l\xc3\xa0 vont tr\xc3\xa8s bien. le superviseur du point focal yabassi'
p2106
sg15
(dp2107
g17
F4.492629
sg18
F9.967466
ssg9
S'54'
p2108
sa(dp2109
g7
g8
sg6
I1380585600
sg4
S"L'achat du vote des \xc3\xa9lecteurs avec de l'argent par le 1er adjoint au maire, membre du RDPC \xc3\xa0 Batoufam"
p2110
sg2
S"Le 1er adjoint au maire, membre du RDPC de Batoufam ach\xc3\xa8te les votes des \xc3\xa9lecteurs en contrepartie d'une somme d'argent. Cet argent leur sera vers\xc3\xa9 par le 1er adjoint au maire une fois que ceux-ci auront remis les bulletins de vote des autres partis."
p2111
sg15
(dp2112
g17
F5.300000000000001
sg18
F10.45
ssg9
S'52'
p2113
sa(dp2114
g7
g733
sg6
I1380585600
sg4
S'Entretiens intempestifs entre les membres du RDPC et les membres de commission locale \xc3\xa0 Bali'
p2115
sg2
S"Les personnes qui ne sont pas dans le proccesus en l'occurence les representants du rdpc entrent pemanemment dans les bureaux de vote pour causer avec les membres de la commission locale de vote \xc3\xa0 Bali,\xc3\xa0 la Mezam, r\xc3\xa9gion du Nord-Ouest."
p2116
sg15
(dp2117
g17
F5.883333299999999
sg18
F10.0166667
ssg9
S'59'
p2118
sa(dp2119
g7
g733
sg6
I1380585600
sg4
S'Irr\xc3\xa9gularit\xc3\xa9 au centre de vote n\xc2\xb071 \xc3\xa0 Yaound\xc3\xa9 2. Un \xc3\xa9lecteur vote dans un autre bureau de vote autre que le sien.'
p2120
sg2
S'Un \xc3\xa9lecteur qui appel\xc3\xa9 \xc3\xa0 voter au bureau de vote A du centre n\xc2\xb071 de Yaound\xc3\xa9 2 r\xc3\xa9ussi \xc3\xa0 voter au bureau de vote B. Il quitte celui-ci pour aller signer \xc3\xa0 A.'
p2121
sg15
(dp2122
g17
F3.866666699999999
sg18
F11.5166667
ssg9
S'43'
p2123
sa(dp2124
g7
g8
sg6
I1380585600
sg4
S'Composition incompl\xc3\xa8te du bureau de vote du coll\xc3\xa8ge la Rosi\xc3\xa8re \xc3\xa0 Damas (Yd\xc3\xa9 3)'
p2125
sg2
S"Composition incimpl\xc3\xa8te du Bureau de vote du coll\xc3\xa8ge la Rosi\xc3\xa8re \xc3\xa0 Damas (Yd\xc3\xa9 3). On ne retouve que le  pdt du bureau de vote  et un representant de l'administration."
p2126
sg15
(dp2127
g17
F3.866666699999999
sg18
F11.5166667
ssg9
S'68'
p2128
sa(dp2129
g7
g733
sg6
I1380585600
sg4
S'Les num\xc3\xa9ros qui apparaissent sur les listes ne sont pas les m\xc3\xaames que celles apparaissent sur les cartes des \xc3\xa9lecteurs \xc3\xa0 Bali'
p2130
sg2
S'Les numero sur les listes ne correspondent pas avec les numero sur les cartes \xc3\xa0 Bali dans la Mezam, r\xc3\xa9gion du Nord-Ouest'
p2131
sg15
(dp2132
g17
F5.883333299999999
sg18
F10.0166667
ssg9
S'57'
p2133
sa(dp2134
g7
g733
sg6
I1380585600
sg4
S'Irr\xc3\xa9gularit\xc3\xa9s \xc3\xa0 yaound\xc3\xa9 III'
p2135
sg2
S"Presence de quelque personnes avec carte d'electeur, mais pas de nom sur la liste. A Yaound\xc3\xa9 III, au coll\xc3\xa8ge la rosi\xc3\xa8re. le pr\xc3\xa9sident du bureau de vote a promis d'inscrire leurs noms sur les listes et leur permettre de voter."
p2136
sg15
(dp2137
g17
F3.866666699999999
sg18
F11.5166667
ssg9
S'58'
p2138
sa(dp2139
g7
g733
sg6
I1380585600
sg4
S'Intimidation des \xc3\xa9lecteurs par le pr\xc3\xa9sident du bureau de vote \xc3\xa0 Biamo (Bafia): une recommandation expresse de voter le RDPC'
p2140
sg2
S"Au bureau de vote n\xc2\xb02 de Biamo \xc3\xa0 Bafia (Mbam et Inoubou), le pr\xc3\xa9sident du bureau de vote choisi le bulletin du RDPC pour les \xc3\xa9lecteurs et leur recommande du mettre les bulletins du RDPC dans l'isoloir."
p2141
sg15
(dp2142
g17
F4.751031999999999
sg18
F11.23084
ssg9
S'74'
p2143
sa(dp2144
g7
g733
sg6
I1380585600
sg4
S'Irr\xc3\xa9gularit\xc3\xa9 flagrante \xc3\xa0 Yaound\xc3\xa9 3: fraude de la pr\xc3\xa9sidente du bureau de vote.'
p2145
sg2
S"A yde3 notamment au lyc\xc3\xa9e d'afanoyoa, il y a une urne scell\xc3\xa9e avec du carton,le couvercle donn\xc3\xa9 n' est pas adapt\xc3\xa9.Et ladite urne a dormi au domicile de la pr\xc3\xa9sidente du bureau de vote. Non seulement qu'elle est arriv\xc3\xa9e tardivement (08 heures 32), elle s'est fait accompagner par un candidat du RDPC."
p2146
sg15
(dp2147
g17
F3.866666699999999
sg18
F11.5166667
ssg9
S'55'
p2148
sa(dp2149
g7
g8
sg6
I1380585600
sg4
S'Le sous-pr\xc3\xa9fet se fait accompagn\xc3\xa9 des chefs de quartier et de certains membres du RDPC pour r\xc3\xa9gler un incident dans un bureau de vote au quartier Deido \xc3\xa0 Douala.'
p2150
sg2
S'Le sous-pr\xc3\xa9fet se fait accompagn\xc3\xa9 des chefs de quartier et de certains membres du RDPC pour r\xc3\xa9gler un incident dans un bureau de vote au quartier Deido \xc3\xa0 Douala.'
p2151
sg15
(dp2152
g17
F4.0681364
sg18
F9.7107273
ssg9
S'76'
p2153
sa(dp2154
g7
g733
sg6
I1380585600
sg4
S'A Bilongue (Douala),  on vient tout juste de changer de liste, car il y a eu de gros probl\xc3\xa8mes...'
p2155
sg2
S'A Bilongue (Douala),  on vient tout juste de changer de liste, car il y a eu de gros probl\xc3\xa8mes...'
p2156
sg15
(dp2157
g17
F4.047486000000001
sg18
F9.706374
ssg9
S'82'
p2158
sa(dp2159
g7
g733
sg6
I1380585600
sg4
S"anmalie \xc3\xa0 Kumba: diff\xc3\xa9rence de num\xc3\xa9ro entre la carte d'\xc3\xa9lecteur et la liste des \xc3\xa9lecteurs devant le bureau de vote"
p2160
sg2
S"The number on my voter's card appears 178. But in the check role booklet, it appears number.183.Why must dis be, nor appears, 2 cause confusions. Kumba"
p2161
sg15
(dp2162
g17
F4.633333299999999
sg18
F9.45
ssg9
S'81'
p2163
sa(dp2164
g7
g8
sg6
I1380585600
sg4
S'Plusieurs irr\xc3\xa9gularit\xc3\xa9s dans le bureau de vote de Damayo'
p2165
sg2
S"Nous notons plusieurs irr\xc3\xa9gularit\xc3\xa9s au bureau de vote de Domayo:\n- Doublure de l'isoloire\n- Forte pr\xc3\xa9sence des autorit\xc3\xa9s traditionnelles dans certains bureaux de vote\n- Quasi-absence des lampes des lampes dans les bureaux de vote\netc..."
p2166
sg15
(dp2167
g17
F10.5939673
sg18
F14.3195552
ssg9
S'106'
p2168
sa(dp2169
g7
g733
sg6
I1380585600
sg4
S'LA COUPURE ELECTRIQUE PENDANT LE DEPOUILLEMENT AU CENTRE DE  VOTE DE NKOLBIKON \xc3\xa0 BERTOUA.'
p2170
sg2
S'LA COUPURE ELECTRIQUE PENDANT LE DEPOUILLEMENT AU CENTRE DE  VOTE DE NKOLBIKON \xc3\xa0 BERTOUA.'
p2171
sg15
(dp2172
g17
F4.575472
sg18
F13.68459
ssg9
S'107'
p2173
sa.