(lp0
S'http://cameroonelection.org/reports/view/275'
p1
aS'http://cameroonelection.org/reports/view/271'
p2
aS'http://cameroonelection.org/reports/view/272'
p3
aS'http://cameroonelection.org/reports/view/273'
p4
aS'http://cameroonelection.org/reports/view/274'
p5
aS'http://cameroonelection.org/reports/view/277'
p6
aS'http://cameroonelection.org/reports/view/278'
p7
aS'http://cameroonelection.org/reports/view/279'
p8
aS'http://cameroonelection.org/reports/view/280'
p9
aS'http://cameroonelection.org/reports/view/282'
p10
aS'http://cameroonelection.org/reports/view/283'
p11
aS'http://cameroonelection.org/reports/view/284'
p12
aS'http://cameroonelection.org/reports/view/291'
p13
aS'http://cameroonelection.org/reports/view/292'
p14
aS'http://cameroonelection.org/reports/view/293'
p15
aS'http://cameroonelection.org/reports/view/294'
p16
aS'http://cameroonelection.org/reports/view/295'
p17
aS'http://cameroonelection.org/reports/view/296'
p18
aS'http://cameroonelection.org/reports/view/297'
p19
aS'http://cameroonelection.org/reports/view/298'
p20
aS'http://cameroonelection.org/reports/view/276'
p21
aS'http://cameroonelection.org/reports/view/281'
p22
aS'http://cameroonelection.org/reports/view/285'
p23
aS'http://cameroonelection.org/reports/view/286'
p24
aS'http://cameroonelection.org/reports/view/287'
p25
aS'http://cameroonelection.org/reports/view/288'
p26
aS'http://cameroonelection.org/reports/view/289'
p27
aS'http://cameroonelection.org/reports/view/290'
p28
aS'http://cameroonelection.org/reports/view/299'
p29
aS'http://cameroonelection.org/reports/view/300'
p30
aS'http://cameroonelection.org/reports/view/301'
p31
aS'http://cameroonelection.org/reports/view/302'
p32
aS'http://cameroonelection.org/reports/view/303'
p33
aS'http://cameroonelection.org/reports/view/304'
p34
aS'http://cameroonelection.org/reports/view/305'
p35
aS'http://cameroonelection.org/reports/view/306'
p36
aS'http://cameroonelection.org/reports/view/307'
p37
aS'http://cameroonelection.org/reports/view/308'
p38
aS'http://cameroonelection.org/reports/view/309'
p39
aS'http://cameroonelection.org/reports/view/310'
p40
aS'http://cameroonelection.org/reports/view/311'
p41
aS'http://cameroonelection.org/reports/view/312'
p42
aS'http://cameroonelection.org/reports/view/313'
p43
aS'http://cameroonelection.org/reports/view/314'
p44
aS'http://cameroonelection.org/reports/view/315'
p45
aS'http://cameroonelection.org/reports/view/316'
p46
aS'http://cameroonelection.org/reports/view/317'
p47
aS'http://cameroonelection.org/reports/view/318'
p48
aS'http://cameroonelection.org/reports/view/319'
p49
aS'http://cameroonelection.org/reports/view/320'
p50
aS'http://cameroonelection.org/reports/view/321'
p51
aS'http://cameroonelection.org/reports/view/322'
p52
aS'http://cameroonelection.org/reports/view/323'
p53
aS'http://cameroonelection.org/reports/view/324'
p54
aS'http://cameroonelection.org/reports/view/325'
p55
aS'http://cameroonelection.org/reports/view/326'
p56
aS'http://cameroonelection.org/reports/view/210'
p57
aS'http://cameroonelection.org/reports/view/327'
p58
aS'http://cameroonelection.org/reports/view/328'
p59
aS'http://cameroonelection.org/reports/view/330'
p60
aS'http://cameroonelection.org/reports/view/332'
p61
aS'http://cameroonelection.org/reports/view/333'
p62
aS'http://cameroonelection.org/reports/view/334'
p63
aS'http://cameroonelection.org/reports/view/335'
p64
aS'http://cameroonelection.org/reports/view/336'
p65
aS'http://cameroonelection.org/reports/view/337'
p66
aS'http://cameroonelection.org/reports/view/338'
p67
aS'http://cameroonelection.org/reports/view/339'
p68
aS'http://cameroonelection.org/reports/view/340'
p69
aS'http://cameroonelection.org/reports/view/341'
p70
aS'http://cameroonelection.org/reports/view/342'
p71
aS'http://cameroonelection.org/reports/view/343'
p72
aS'http://cameroonelection.org/reports/view/344'
p73
aS'http://cameroonelection.org/reports/view/345'
p74
aS'http://cameroonelection.org/reports/view/346'
p75
aS'http://cameroonelection.org/reports/view/347'
p76
aS'http://cameroonelection.org/reports/view/348'
p77
aS'http://cameroonelection.org/reports/view/350'
p78
aS'http://cameroonelection.org/reports/view/351'
p79
aS'http://cameroonelection.org/reports/view/352'
p80
aS'http://cameroonelection.org/reports/view/355'
p81
aS'http://cameroonelection.org/reports/view/356'
p82
aS'http://cameroonelection.org/reports/view/357'
p83
aS'http://cameroonelection.org/reports/view/329'
p84
aS'http://cameroonelection.org/reports/view/331'
p85
aS'http://cameroonelection.org/reports/view/353'
p86
aS'http://cameroonelection.org/reports/view/354'
p87
aS'http://cameroonelection.org/reports/view/358'
p88
aS'http://cameroonelection.org/reports/view/359'
p89
aS'http://cameroonelection.org/reports/view/360'
p90
aS'http://cameroonelection.org/reports/view/361'
p91
aS'http://cameroonelection.org/reports/view/372'
p92
aS'http://cameroonelection.org/reports/view/376'
p93
aS'http://cameroonelection.org/reports/view/377'
p94
aS'http://cameroonelection.org/reports/view/382'
p95
aS'http://cameroonelection.org/reports/view/165'
p96
aS'http://cameroonelection.org/reports/view/166'
p97
aS'http://cameroonelection.org/reports/view/167'
p98
aS'http://cameroonelection.org/reports/view/168'
p99
aS'http://cameroonelection.org/reports/view/169'
p100
aS'http://cameroonelection.org/reports/view/170'
p101
aS'http://cameroonelection.org/reports/view/171'
p102
aS'http://cameroonelection.org/reports/view/172'
p103
aS'http://cameroonelection.org/reports/view/173'
p104
aS'http://cameroonelection.org/reports/view/174'
p105
aS'http://cameroonelection.org/reports/view/175'
p106
aS'http://cameroonelection.org/reports/view/176'
p107
aS'http://cameroonelection.org/reports/view/177'
p108
aS'http://cameroonelection.org/reports/view/178'
p109
aS'http://cameroonelection.org/reports/view/179'
p110
aS'http://cameroonelection.org/reports/view/180'
p111
aS'http://cameroonelection.org/reports/view/181'
p112
aS'http://cameroonelection.org/reports/view/182'
p113
aS'http://cameroonelection.org/reports/view/183'
p114
aS'http://cameroonelection.org/reports/view/184'
p115
aS'http://cameroonelection.org/reports/view/185'
p116
aS'http://cameroonelection.org/reports/view/186'
p117
aS'http://cameroonelection.org/reports/view/187'
p118
aS'http://cameroonelection.org/reports/view/188'
p119
aS'http://cameroonelection.org/reports/view/189'
p120
aS'http://cameroonelection.org/reports/view/190'
p121
aS'http://cameroonelection.org/reports/view/191'
p122
aS'http://cameroonelection.org/reports/view/193'
p123
aS'http://cameroonelection.org/reports/view/194'
p124
aS'http://cameroonelection.org/reports/view/195'
p125
aS'http://cameroonelection.org/reports/view/196'
p126
aS'http://cameroonelection.org/reports/view/198'
p127
aS'http://cameroonelection.org/reports/view/192'
p128
aS'http://cameroonelection.org/reports/view/197'
p129
aS'http://cameroonelection.org/reports/view/199'
p130
aS'http://cameroonelection.org/reports/view/200'
p131
aS'http://cameroonelection.org/reports/view/201'
p132
aS'http://cameroonelection.org/reports/view/203'
p133
aS'http://cameroonelection.org/reports/view/204'
p134
aS'http://cameroonelection.org/reports/view/206'
p135
aS'http://cameroonelection.org/reports/view/207'
p136
aS'http://cameroonelection.org/reports/view/209'
p137
aS'http://cameroonelection.org/reports/view/212'
p138
aS'http://cameroonelection.org/reports/view/213'
p139
aS'http://cameroonelection.org/reports/view/214'
p140
aS'http://cameroonelection.org/reports/view/215'
p141
aS'http://cameroonelection.org/reports/view/217'
p142
aS'http://cameroonelection.org/reports/view/219'
p143
aS'http://cameroonelection.org/reports/view/221'
p144
aS'http://cameroonelection.org/reports/view/223'
p145
aS'http://cameroonelection.org/reports/view/224'
p146
aS'http://cameroonelection.org/reports/view/226'
p147
aS'http://cameroonelection.org/reports/view/228'
p148
aS'http://cameroonelection.org/reports/view/230'
p149
aS'http://cameroonelection.org/reports/view/503'
p150
aS'http://cameroonelection.org/reports/view/158'
p151
aS'http://cameroonelection.org/reports/view/160'
p152
aS'http://cameroonelection.org/reports/view/151'
p153
aS'http://cameroonelection.org/reports/view/155'
p154
aS'http://cameroonelection.org/reports/view/129'
p155
aS'http://cameroonelection.org/reports/view/130'
p156
aS'http://cameroonelection.org/reports/view/132'
p157
aS'http://cameroonelection.org/reports/view/133'
p158
aS'http://cameroonelection.org/reports/view/216'
p159
aS'http://cameroonelection.org/reports/view/231'
p160
aS'http://cameroonelection.org/reports/view/135'
p161
aS'http://cameroonelection.org/reports/view/137'
p162
aS'http://cameroonelection.org/reports/view/138'
p163
aS'http://cameroonelection.org/reports/view/140'
p164
aS'http://cameroonelection.org/reports/view/143'
p165
aS'http://cameroonelection.org/reports/view/144'
p166
aS'http://cameroonelection.org/reports/view/145'
p167
aS'http://cameroonelection.org/reports/view/148'
p168
aS'http://cameroonelection.org/reports/view/152'
p169
aS'http://cameroonelection.org/reports/view/154'
p170
aS'http://cameroonelection.org/reports/view/157'
p171
aS'http://cameroonelection.org/reports/view/159'
p172
aS'http://cameroonelection.org/reports/view/161'
p173
aS'http://cameroonelection.org/reports/view/162'
p174
aS'http://cameroonelection.org/reports/view/163'
p175
aS'http://cameroonelection.org/reports/view/164'
p176
aS'http://cameroonelection.org/reports/view/202'
p177
aS'http://cameroonelection.org/reports/view/205'
p178
aS'http://cameroonelection.org/reports/view/208'
p179
aS'http://cameroonelection.org/reports/view/211'
p180
aS'http://cameroonelection.org/reports/view/218'
p181
aS'http://cameroonelection.org/reports/view/220'
p182
aS'http://cameroonelection.org/reports/view/222'
p183
aS'http://cameroonelection.org/reports/view/225'
p184
aS'http://cameroonelection.org/reports/view/227'
p185
aS'http://cameroonelection.org/reports/view/232'
p186
aS'http://cameroonelection.org/reports/view/234'
p187
aS'http://cameroonelection.org/reports/view/236'
p188
aS'http://cameroonelection.org/reports/view/349'
p189
aS'http://cameroonelection.org/reports/view/501'
p190
aS'http://cameroonelection.org/reports/view/502'
p191
aS'http://cameroonelection.org/reports/view/111'
p192
aS'http://cameroonelection.org/reports/view/112'
p193
aS'http://cameroonelection.org/reports/view/113'
p194
aS'http://cameroonelection.org/reports/view/114'
p195
aS'http://cameroonelection.org/reports/view/115'
p196
aS'http://cameroonelection.org/reports/view/116'
p197
aS'http://cameroonelection.org/reports/view/117'
p198
aS'http://cameroonelection.org/reports/view/118'
p199
aS'http://cameroonelection.org/reports/view/119'
p200
aS'http://cameroonelection.org/reports/view/120'
p201
aS'http://cameroonelection.org/reports/view/121'
p202
aS'http://cameroonelection.org/reports/view/122'
p203
aS'http://cameroonelection.org/reports/view/123'
p204
aS'http://cameroonelection.org/reports/view/124'
p205
aS'http://cameroonelection.org/reports/view/125'
p206
aS'http://cameroonelection.org/reports/view/126'
p207
aS'http://cameroonelection.org/reports/view/127'
p208
aS'http://cameroonelection.org/reports/view/128'
p209
aS'http://cameroonelection.org/reports/view/131'
p210
aS'http://cameroonelection.org/reports/view/134'
p211
aS'http://cameroonelection.org/reports/view/136'
p212
aS'http://cameroonelection.org/reports/view/139'
p213
aS'http://cameroonelection.org/reports/view/141'
p214
aS'http://cameroonelection.org/reports/view/142'
p215
aS'http://cameroonelection.org/reports/view/146'
p216
aS'http://cameroonelection.org/reports/view/147'
p217
aS'http://cameroonelection.org/reports/view/149'
p218
aS'http://cameroonelection.org/reports/view/150'
p219
aS'http://cameroonelection.org/reports/view/153'
p220
aS'http://cameroonelection.org/reports/view/156'
p221
aS'http://cameroonelection.org/reports/view/229'
p222
aS'http://cameroonelection.org/reports/view/233'
p223
aS'http://cameroonelection.org/reports/view/235'
p224
aS'http://cameroonelection.org/reports/view/238'
p225
aS'http://cameroonelection.org/reports/view/240'
p226
aS'http://cameroonelection.org/reports/view/241'
p227
aS'http://cameroonelection.org/reports/view/244'
p228
aS'http://cameroonelection.org/reports/view/245'
p229
aS'http://cameroonelection.org/reports/view/247'
p230
aS'http://cameroonelection.org/reports/view/249'
p231
aS'http://cameroonelection.org/reports/view/251'
p232
aS'http://cameroonelection.org/reports/view/253'
p233
aS'http://cameroonelection.org/reports/view/237'
p234
aS'http://cameroonelection.org/reports/view/239'
p235
aS'http://cameroonelection.org/reports/view/242'
p236
aS'http://cameroonelection.org/reports/view/243'
p237
aS'http://cameroonelection.org/reports/view/246'
p238
aS'http://cameroonelection.org/reports/view/248'
p239
aS'http://cameroonelection.org/reports/view/250'
p240
aS'http://cameroonelection.org/reports/view/252'
p241
aS'http://cameroonelection.org/reports/view/254'
p242
aS'http://cameroonelection.org/reports/view/255'
p243
aS'http://cameroonelection.org/reports/view/256'
p244
aS'http://cameroonelection.org/reports/view/257'
p245
aS'http://cameroonelection.org/reports/view/258'
p246
aS'http://cameroonelection.org/reports/view/259'
p247
aS'http://cameroonelection.org/reports/view/260'
p248
aS'http://cameroonelection.org/reports/view/261'
p249
aS'http://cameroonelection.org/reports/view/262'
p250
aS'http://cameroonelection.org/reports/view/263'
p251
aS'http://cameroonelection.org/reports/view/264'
p252
aS'http://cameroonelection.org/reports/view/265'
p253
aS'http://cameroonelection.org/reports/view/266'
p254
aS'http://cameroonelection.org/reports/view/267'
p255
aS'http://cameroonelection.org/reports/view/268'
p256
aS'http://cameroonelection.org/reports/view/269'
p257
aS'http://cameroonelection.org/reports/view/270'
p258
aS'http://cameroonelection.org/reports/view/486'
p259
aS'http://cameroonelection.org/reports/view/487'
p260
aS'http://cameroonelection.org/reports/view/488'
p261
aS'http://cameroonelection.org/reports/view/489'
p262
aS'http://cameroonelection.org/reports/view/490'
p263
aS'http://cameroonelection.org/reports/view/491'
p264
aS'http://cameroonelection.org/reports/view/492'
p265
aS'http://cameroonelection.org/reports/view/493'
p266
aS'http://cameroonelection.org/reports/view/494'
p267
aS'http://cameroonelection.org/reports/view/495'
p268
aS'http://cameroonelection.org/reports/view/496'
p269
aS'http://cameroonelection.org/reports/view/497'
p270
aS'http://cameroonelection.org/reports/view/498'
p271
aS'http://cameroonelection.org/reports/view/499'
p272
aS'http://cameroonelection.org/reports/view/500'
p273
aS'http://cameroonelection.org/reports/view/504'
p274
aS'http://cameroonelection.org/reports/view/505'
p275
aS'http://cameroonelection.org/reports/view/364'
p276
aS'http://cameroonelection.org/reports/view/362'
p277
aS'http://cameroonelection.org/reports/view/363'
p278
aS'http://cameroonelection.org/reports/view/365'
p279
aS'http://cameroonelection.org/reports/view/366'
p280
aS'http://cameroonelection.org/reports/view/367'
p281
aS'http://cameroonelection.org/reports/view/368'
p282
aS'http://cameroonelection.org/reports/view/369'
p283
aS'http://cameroonelection.org/reports/view/370'
p284
aS'http://cameroonelection.org/reports/view/371'
p285
aS'http://cameroonelection.org/reports/view/373'
p286
aS'http://cameroonelection.org/reports/view/374'
p287
aS'http://cameroonelection.org/reports/view/375'
p288
aS'http://cameroonelection.org/reports/view/378'
p289
aS'http://cameroonelection.org/reports/view/379'
p290
aS'http://cameroonelection.org/reports/view/380'
p291
aS'http://cameroonelection.org/reports/view/381'
p292
aS'http://cameroonelection.org/reports/view/383'
p293
aS'http://cameroonelection.org/reports/view/384'
p294
aS'http://cameroonelection.org/reports/view/385'
p295
aS'http://cameroonelection.org/reports/view/386'
p296
aS'http://cameroonelection.org/reports/view/387'
p297
aS'http://cameroonelection.org/reports/view/388'
p298
aS'http://cameroonelection.org/reports/view/389'
p299
aS'http://cameroonelection.org/reports/view/390'
p300
aS'http://cameroonelection.org/reports/view/391'
p301
aS'http://cameroonelection.org/reports/view/392'
p302
aS'http://cameroonelection.org/reports/view/393'
p303
aS'http://cameroonelection.org/reports/view/394'
p304
aS'http://cameroonelection.org/reports/view/395'
p305
aS'http://cameroonelection.org/reports/view/396'
p306
aS'http://cameroonelection.org/reports/view/398'
p307
aS'http://cameroonelection.org/reports/view/399'
p308
aS'http://cameroonelection.org/reports/view/400'
p309
aS'http://cameroonelection.org/reports/view/401'
p310
aS'http://cameroonelection.org/reports/view/403'
p311
aS'http://cameroonelection.org/reports/view/405'
p312
aS'http://cameroonelection.org/reports/view/457'
p313
aS'http://cameroonelection.org/reports/view/458'
p314
aS'http://cameroonelection.org/reports/view/462'
p315
aS'http://cameroonelection.org/reports/view/465'
p316
aS'http://cameroonelection.org/reports/view/467'
p317
aS'http://cameroonelection.org/reports/view/470'
p318
aS'http://cameroonelection.org/reports/view/471'
p319
aS'http://cameroonelection.org/reports/view/472'
p320
aS'http://cameroonelection.org/reports/view/474'
p321
aS'http://cameroonelection.org/reports/view/476'
p322
aS'http://cameroonelection.org/reports/view/478'
p323
aS'http://cameroonelection.org/reports/view/480'
p324
aS'http://cameroonelection.org/reports/view/481'
p325
aS'http://cameroonelection.org/reports/view/482'
p326
aS'http://cameroonelection.org/reports/view/483'
p327
aS'http://cameroonelection.org/reports/view/484'
p328
aS'http://cameroonelection.org/reports/view/485'
p329
aS'http://cameroonelection.org/reports/view/506'
p330
aS'http://cameroonelection.org/reports/view/507'
p331
aS'http://cameroonelection.org/reports/view/508'
p332
aS'http://cameroonelection.org/reports/view/414'
p333
aS'http://cameroonelection.org/reports/view/415'
p334
aS'http://cameroonelection.org/reports/view/416'
p335
aS'http://cameroonelection.org/reports/view/417'
p336
aS'http://cameroonelection.org/reports/view/418'
p337
aS'http://cameroonelection.org/reports/view/419'
p338
aS'http://cameroonelection.org/reports/view/421'
p339
aS'http://cameroonelection.org/reports/view/422'
p340
aS'http://cameroonelection.org/reports/view/424'
p341
aS'http://cameroonelection.org/reports/view/426'
p342
aS'http://cameroonelection.org/reports/view/429'
p343
aS'http://cameroonelection.org/reports/view/433'
p344
aS'http://cameroonelection.org/reports/view/435'
p345
aS'http://cameroonelection.org/reports/view/436'
p346
aS'http://cameroonelection.org/reports/view/437'
p347
aS'http://cameroonelection.org/reports/view/439'
p348
aS'http://cameroonelection.org/reports/view/441'
p349
aS'http://cameroonelection.org/reports/view/442'
p350
aS'http://cameroonelection.org/reports/view/445'
p351
aS'http://cameroonelection.org/reports/view/446'
p352
aS'http://cameroonelection.org/reports/view/452'
p353
aS'http://cameroonelection.org/reports/view/453'
p354
aS'http://cameroonelection.org/reports/view/454'
p355
aS'http://cameroonelection.org/reports/view/456'
p356
aS'http://cameroonelection.org/reports/view/460'
p357
aS'http://cameroonelection.org/reports/view/473'
p358
aS'http://cameroonelection.org/reports/view/475'
p359
aS'http://cameroonelection.org/reports/view/477'
p360
aS'http://cameroonelection.org/reports/view/479'
p361
aS'http://cameroonelection.org/reports/view/110'
p362
aS'http://cameroonelection.org/reports/view/450'
p363
aS'http://cameroonelection.org/reports/view/451'
p364
aS'http://cameroonelection.org/reports/view/455'
p365
aS'http://cameroonelection.org/reports/view/459'
p366
aS'http://cameroonelection.org/reports/view/397'
p367
aS'http://cameroonelection.org/reports/view/402'
p368
aS'http://cameroonelection.org/reports/view/404'
p369
aS'http://cameroonelection.org/reports/view/406'
p370
aS'http://cameroonelection.org/reports/view/407'
p371
aS'http://cameroonelection.org/reports/view/408'
p372
aS'http://cameroonelection.org/reports/view/409'
p373
aS'http://cameroonelection.org/reports/view/410'
p374
aS'http://cameroonelection.org/reports/view/411'
p375
aS'http://cameroonelection.org/reports/view/412'
p376
aS'http://cameroonelection.org/reports/view/413'
p377
aS'http://cameroonelection.org/reports/view/420'
p378
aS'http://cameroonelection.org/reports/view/423'
p379
aS'http://cameroonelection.org/reports/view/425'
p380
aS'http://cameroonelection.org/reports/view/427'
p381
aS'http://cameroonelection.org/reports/view/428'
p382
aS'http://cameroonelection.org/reports/view/430'
p383
aS'http://cameroonelection.org/reports/view/431'
p384
aS'http://cameroonelection.org/reports/view/432'
p385
aS'http://cameroonelection.org/reports/view/434'
p386
aS'http://cameroonelection.org/reports/view/438'
p387
aS'http://cameroonelection.org/reports/view/440'
p388
aS'http://cameroonelection.org/reports/view/443'
p389
aS'http://cameroonelection.org/reports/view/444'
p390
aS'http://cameroonelection.org/reports/view/447'
p391
aS'http://cameroonelection.org/reports/view/448'
p392
aS'http://cameroonelection.org/reports/view/449'
p393
aS'http://cameroonelection.org/reports/view/461'
p394
aS'http://cameroonelection.org/reports/view/463'
p395
aS'http://cameroonelection.org/reports/view/464'
p396
aS'http://cameroonelection.org/reports/view/466'
p397
aS'http://cameroonelection.org/reports/view/468'
p398
aS'http://cameroonelection.org/reports/view/469'
p399
aS'http://cameroonelection.org/reports/view/104'
p400
aS'http://cameroonelection.org/reports/view/99'
p401
aS'http://cameroonelection.org/reports/view/100'
p402
aS'http://cameroonelection.org/reports/view/102'
p403
aS'http://cameroonelection.org/reports/view/98'
p404
aS'http://cameroonelection.org/reports/view/94'
p405
aS'http://cameroonelection.org/reports/view/95'
p406
aS'http://cameroonelection.org/reports/view/96'
p407
aS'http://cameroonelection.org/reports/view/103'
p408
aS'http://cameroonelection.org/reports/view/93'
p409
aS'http://cameroonelection.org/reports/view/92'
p410
aS'http://cameroonelection.org/reports/view/89'
p411
aS'http://cameroonelection.org/reports/view/87'
p412
aS'http://cameroonelection.org/reports/view/88'
p413
aS'http://cameroonelection.org/reports/view/84'
p414
aS'http://cameroonelection.org/reports/view/83'
p415
aS'http://cameroonelection.org/reports/view/109'
p416
aS'http://cameroonelection.org/reports/view/77'
p417
aS'http://cameroonelection.org/reports/view/73'
p418
aS'http://cameroonelection.org/reports/view/67'
p419
aS'http://cameroonelection.org/reports/view/64'
p420
aS'http://cameroonelection.org/reports/view/63'
p421
aS'http://cameroonelection.org/reports/view/61'
p422
aS'http://cameroonelection.org/reports/view/60'
p423
aS'http://cameroonelection.org/reports/view/56'
p424
aS'http://cameroonelection.org/reports/view/51'
p425
aS'http://cameroonelection.org/reports/view/34'
p426
aS'http://cameroonelection.org/reports/view/33'
p427
aS'http://cameroonelection.org/reports/view/35'
p428
aS'http://cameroonelection.org/reports/view/69'
p429
aS'http://cameroonelection.org/reports/view/49'
p430
aS'http://cameroonelection.org/reports/view/71'
p431
aS'http://cameroonelection.org/reports/view/72'
p432
aS'http://cameroonelection.org/reports/view/50'
p433
aS'http://cameroonelection.org/reports/view/85'
p434
aS'http://cameroonelection.org/reports/view/54'
p435
aS'http://cameroonelection.org/reports/view/52'
p436
aS'http://cameroonelection.org/reports/view/59'
p437
aS'http://cameroonelection.org/reports/view/43'
p438
aS'http://cameroonelection.org/reports/view/68'
p439
aS'http://cameroonelection.org/reports/view/57'
p440
aS'http://cameroonelection.org/reports/view/58'
p441
aS'http://cameroonelection.org/reports/view/74'
p442
aS'http://cameroonelection.org/reports/view/55'
p443
aS'http://cameroonelection.org/reports/view/76'
p444
aS'http://cameroonelection.org/reports/view/82'
p445
aS'http://cameroonelection.org/reports/view/81'
p446
aS'http://cameroonelection.org/reports/view/106'
p447
aS'http://cameroonelection.org/reports/view/107'
p448
a.